ARM GAS  C:\Users\filip\AppData\Local\Temp\ccRbv8Vp.s 			page 1


   1              		.syntax unified
   2              		.cpu cortex-m3
   3              		.fpu softvfp
   4              		.eabi_attribute 20, 1
   5              		.eabi_attribute 21, 1
   6              		.eabi_attribute 23, 3
   7              		.eabi_attribute 24, 1
   8              		.eabi_attribute 25, 1
   9              		.eabi_attribute 26, 1
  10              		.eabi_attribute 30, 1
  11              		.eabi_attribute 34, 1
  12              		.eabi_attribute 18, 4
  13              		.thumb
  14              		.syntax unified
  15              		.file	"app.c"
  16              		.text
  17              	.Ltext0:
  18              		.cfi_sections	.debug_frame
  19              		.section	.text.App_TaskCreate,"ax",%progbits
  20              		.align	2
  21              		.thumb
  22              		.thumb_func
  23              		.type	App_TaskCreate, %function
  24              	App_TaskCreate:
  25              	.LFB3:
  26              		.file 1 "APP\\app.c"
   1:APP/app.c     **** /*
   2:APP/app.c     **** ***************************************************************************************************
   3:APP/app.c     **** *
   4:APP/app.c     **** *                                       MES1 Embedded Software (RTOS)
   5:APP/app.c     **** *
   6:APP/app.c     **** * Filename      : app.c
   7:APP/app.c     **** * Version       : V1.0
   8:APP/app.c     **** * Programmer(s) : Mihael Petrovic, Filip Wagner
   9:APP/app.c     ****                   
  10:APP/app.c     **** ***************************************************************************************************
  11:APP/app.c     **** */
  12:APP/app.c     **** 
  13:APP/app.c     **** /*
  14:APP/app.c     **** ***************************************************************************************************
  15:APP/app.c     **** *                                             INCLUDE FILES
  16:APP/app.c     **** ***************************************************************************************************
  17:APP/app.c     **** */
  18:APP/app.c     **** 
  19:APP/app.c     **** #include <includes.h>
  20:APP/app.c     **** #include <cyapicallbacks.h>
  21:APP/app.c     **** 
  22:APP/app.c     **** /*
  23:APP/app.c     **** ***************************************************************************************************
  24:APP/app.c     **** *                                             LOCAL DEFINES
  25:APP/app.c     **** ***************************************************************************************************
  26:APP/app.c     **** */
  27:APP/app.c     **** 
  28:APP/app.c     **** #define  BMP280_CONFIG_OSRT_T               BMP280_OSRT_T_X4
  29:APP/app.c     **** #define  BMP280_CONFIG_OSRT_P               BMP280_OSRT_P_X2
  30:APP/app.c     **** #define  BMP280_CONFIG_POWER_MODE           BMP280_POWER_MODE_NORMAL
  31:APP/app.c     **** #define  BMP280_CONFIG_T_STANDBY            BMP280_T_STANDBY_0_5MS
ARM GAS  C:\Users\filip\AppData\Local\Temp\ccRbv8Vp.s 			page 2


  32:APP/app.c     **** #define  BMP280_CONFIG_FILTER               BMP280_FILTER_COEFF_2
  33:APP/app.c     **** #define  BMP280_CONFIG_SPI3W_EN             BMP280_SPI3_WIRE_DISENABLE
  34:APP/app.c     **** 
  35:APP/app.c     **** /*
  36:APP/app.c     **** ***************************************************************************************************
  37:APP/app.c     **** *                                            LOCAL VARIABLES
  38:APP/app.c     **** ***************************************************************************************************
  39:APP/app.c     **** */
  40:APP/app.c     **** 
  41:APP/app.c     **** static  OS_TCB   App_TaskStartTCB;
  42:APP/app.c     **** static  CPU_STK  App_TaskStartStk[APP_CFG_TASK_START_STK_SIZE];
  43:APP/app.c     **** 
  44:APP/app.c     **** static  OS_TCB   App_TaskCOM_TCB;
  45:APP/app.c     **** static  CPU_STK  App_TaskCOMStk[APP_CFG_TASK_COM_STK_SIZE];
  46:APP/app.c     **** 
  47:APP/app.c     **** static  OS_TCB   App_TaskPRESS_TCB;
  48:APP/app.c     **** static  CPU_STK  App_TaskPRESSStk[APP_CFG_TASK_PRESS_STK_SIZE];
  49:APP/app.c     **** 
  50:APP/app.c     **** 
  51:APP/app.c     **** /*
  52:APP/app.c     **** ***************************************************************************************************
  53:APP/app.c     **** *                                         FUNCTION PROTOTYPES
  54:APP/app.c     **** ***************************************************************************************************
  55:APP/app.c     **** */
  56:APP/app.c     **** 
  57:APP/app.c     **** static  void  App_TaskStart  (void *p_arg);
  58:APP/app.c     **** 
  59:APP/app.c     **** static  void  App_TaskCOM (void *p_arg);
  60:APP/app.c     **** static  void  App_TaskPRESS (void *p_arg);
  61:APP/app.c     **** 
  62:APP/app.c     **** static  void  App_TaskCreate (void);
  63:APP/app.c     **** 
  64:APP/app.c     **** /*
  65:APP/app.c     **** ***************************************************************************************************
  66:APP/app.c     **** *                                                main()
  67:APP/app.c     **** *
  68:APP/app.c     **** * Description : This is the standard entry point for C code.  It is assumed that your code will cal
  69:APP/app.c     **** *               main() once you have performed all necessary initialization.
  70:APP/app.c     **** *
  71:APP/app.c     **** * Argument(s) : none
  72:APP/app.c     **** *
  73:APP/app.c     **** * Return(s)   : none
  74:APP/app.c     **** *
  75:APP/app.c     **** * Caller(s)   : Startup Code.
  76:APP/app.c     **** *
  77:APP/app.c     **** * Note(s)     : none.
  78:APP/app.c     **** ***************************************************************************************************
  79:APP/app.c     **** */
  80:APP/app.c     **** 
  81:APP/app.c     **** int  main (void)
  82:APP/app.c     **** {
  83:APP/app.c     ****   OS_ERR  os_err;
  84:APP/app.c     ****   
  85:APP/app.c     ****   BSP_PreInit();                                              /* Perform BSP pre-initialization.   
  86:APP/app.c     **** 
  87:APP/app.c     ****   CPU_Init();                                                 /* Initialize the uC/CPU services    
  88:APP/app.c     **** 
ARM GAS  C:\Users\filip\AppData\Local\Temp\ccRbv8Vp.s 			page 3


  89:APP/app.c     ****   OSInit(&os_err);                                            /* Init uC/OS-III.                   
  90:APP/app.c     ****   
  91:APP/app.c     ****   OSTaskCreate((OS_TCB      *)&App_TaskStartTCB,              /* Create the start task             
  92:APP/app.c     ****                (CPU_CHAR    *)"Start",
  93:APP/app.c     ****                (OS_TASK_PTR  )App_TaskStart, 
  94:APP/app.c     ****                (void        *)0,
  95:APP/app.c     ****                (OS_PRIO      )APP_CFG_TASK_START_PRIO,
  96:APP/app.c     ****                (CPU_STK     *)&App_TaskStartStk[0],
  97:APP/app.c     ****                (CPU_STK_SIZE )APP_CFG_TASK_START_STK_SIZE_LIMIT,
  98:APP/app.c     ****                (CPU_STK_SIZE )APP_CFG_TASK_START_STK_SIZE,
  99:APP/app.c     ****                (OS_MSG_QTY   )0u,
 100:APP/app.c     ****                (OS_TICK      )0u,
 101:APP/app.c     ****                (void        *)0,
 102:APP/app.c     ****                (OS_OPT       )(OS_OPT_TASK_STK_CHK | OS_OPT_TASK_STK_CLR),
 103:APP/app.c     ****                (OS_ERR      *)&os_err);
 104:APP/app.c     ****   
 105:APP/app.c     ****   OSStart(&os_err);                                            /* Start multitasking (i.e. give con
 106:APP/app.c     **** }
 107:APP/app.c     **** 
 108:APP/app.c     **** 
 109:APP/app.c     **** /*
 110:APP/app.c     **** ***************************************************************************************************
 111:APP/app.c     **** *                                          App_TaskStart()
 112:APP/app.c     **** *
 113:APP/app.c     **** * Description : This is an example of a startup task.  As mentioned in the book's text, you MUST
 114:APP/app.c     **** *               initialize the ticker only once multitasking has started.
 115:APP/app.c     **** *
 116:APP/app.c     **** * Argument(s) : p_arg   is the argument passed to 'App_TaskStart()' by 'OSTaskCreate()'.
 117:APP/app.c     **** *
 118:APP/app.c     **** * Return(s)   : none
 119:APP/app.c     **** *
 120:APP/app.c     **** * Note(s)     : 1) The first line of code is used to prevent a compiler warning because 'p_arg' is 
 121:APP/app.c     **** *                  used.  The compiler should not generate any code for this statement.
 122:APP/app.c     **** ***************************************************************************************************
 123:APP/app.c     **** */
 124:APP/app.c     **** 
 125:APP/app.c     **** static  void  App_TaskStart (void *p_arg)
 126:APP/app.c     **** {
 127:APP/app.c     ****   OS_ERR       err;
 128:APP/app.c     ****      
 129:APP/app.c     ****  (void)p_arg;
 130:APP/app.c     **** 
 131:APP/app.c     ****   BSP_PostInit();                                               /* Perform BSP post-initialization 
 132:APP/app.c     ****   
 133:APP/app.c     ****   BSP_CPU_TickInit();                                           /* Perfrom Tick Initialization     
 134:APP/app.c     ****   
 135:APP/app.c     **** #if (OS_CFG_STAT_TASK_EN > 0u)
 136:APP/app.c     ****   OSStatTaskCPUUsageInit(&err);
 137:APP/app.c     **** #endif    
 138:APP/app.c     **** 
 139:APP/app.c     **** #ifdef CPU_CFG_INT_DIS_MEAS_EN
 140:APP/app.c     ****   CPU_IntDisMeasMaxCurReset();
 141:APP/app.c     **** #endif      
 142:APP/app.c     **** 
 143:APP/app.c     ****   /* wait for bmp280 sensor to be connected */
 144:APP/app.c     ****   wait_bmp280_connecting();
 145:APP/app.c     **** 
ARM GAS  C:\Users\filip\AppData\Local\Temp\ccRbv8Vp.s 			page 4


 146:APP/app.c     ****   App_TaskCreate();                                             /* Create application tasks.       
 147:APP/app.c     ****   
 148:APP/app.c     ****   while (DEF_TRUE) {                                            /* Task body, always written as an 
 149:APP/app.c     ****     OSTimeDlyHMSM(0, 0, 0, 100, 
 150:APP/app.c     ****                   OS_OPT_TIME_HMSM_STRICT, 
 151:APP/app.c     ****                   &err);
 152:APP/app.c     ****   }
 153:APP/app.c     **** }
 154:APP/app.c     **** 
 155:APP/app.c     **** 
 156:APP/app.c     **** /*
 157:APP/app.c     **** ***************************************************************************************************
 158:APP/app.c     **** *                                          App_TaskCreate()
 159:APP/app.c     **** *
 160:APP/app.c     **** * Description : Create application tasks.
 161:APP/app.c     **** *
 162:APP/app.c     **** * Argument(s) : none
 163:APP/app.c     **** *
 164:APP/app.c     **** * Return(s)   : none
 165:APP/app.c     **** *
 166:APP/app.c     **** * Caller(s)   : AppTaskStart()
 167:APP/app.c     **** *
 168:APP/app.c     **** * Note(s)     : none.
 169:APP/app.c     **** ***************************************************************************************************
 170:APP/app.c     **** */
 171:APP/app.c     **** 
 172:APP/app.c     **** static  void  App_TaskCreate (void)
 173:APP/app.c     **** {
  27              		.loc 1 173 0
  28              		.cfi_startproc
  29              		@ args = 0, pretend = 0, frame = 8
  30              		@ frame_needed = 0, uses_anonymous_args = 0
  31 0000 2DE9F041 		push	{r4, r5, r6, r7, r8, lr}
  32              		.cfi_def_cfa_offset 24
  33              		.cfi_offset 4, -24
  34              		.cfi_offset 5, -20
  35              		.cfi_offset 6, -16
  36              		.cfi_offset 7, -12
  37              		.cfi_offset 8, -8
  38              		.cfi_offset 14, -4
  39 0004 8CB0     		sub	sp, sp, #48
  40              		.cfi_def_cfa_offset 72
 174:APP/app.c     ****   /* declare and define function local variables */
 175:APP/app.c     ****   OS_ERR  os_err;
 176:APP/app.c     ****   
 177:APP/app.c     ****   /* create COM task */
 178:APP/app.c     ****   OSTaskCreate((OS_TCB      *)&App_TaskCOM_TCB,
  41              		.loc 1 178 0
  42 0006 1B4D     		ldr	r5, .L3
  43 0008 0DF12E07 		add	r7, sp, #46
  44 000c 0897     		str	r7, [sp, #32]
  45 000e 0326     		movs	r6, #3
  46 0010 0796     		str	r6, [sp, #28]
  47 0012 0024     		movs	r4, #0
  48 0014 0694     		str	r4, [sp, #24]
  49 0016 0594     		str	r4, [sp, #20]
  50 0018 4FF00A08 		mov	r8, #10
ARM GAS  C:\Users\filip\AppData\Local\Temp\ccRbv8Vp.s 			page 5


  51 001c CDF81080 		str	r8, [sp, #16]
  52 0020 4FF48073 		mov	r3, #256
  53 0024 0393     		str	r3, [sp, #12]
  54 0026 1923     		movs	r3, #25
  55 0028 0293     		str	r3, [sp, #8]
  56 002a 05F1C003 		add	r3, r5, #192
  57 002e 0193     		str	r3, [sp, #4]
  58 0030 0423     		movs	r3, #4
  59 0032 0093     		str	r3, [sp]
  60 0034 2346     		mov	r3, r4
  61 0036 104A     		ldr	r2, .L3+4
  62 0038 1049     		ldr	r1, .L3+8
  63 003a 2846     		mov	r0, r5
  64 003c FFF7FEFF 		bl	OSTaskCreate
  65              	.LVL0:
 179:APP/app.c     ****                (CPU_CHAR    *)"TaskCOM",
 180:APP/app.c     ****                (OS_TASK_PTR  )App_TaskCOM, 
 181:APP/app.c     ****                (void        *)0,
 182:APP/app.c     ****                (OS_PRIO      )APP_CFG_TASK_COM_PRIO,
 183:APP/app.c     ****                (CPU_STK     *)&App_TaskCOMStk[0],
 184:APP/app.c     ****                (CPU_STK_SIZE )APP_CFG_TASK_COM_STK_SIZE_LIMIT,
 185:APP/app.c     ****                (CPU_STK_SIZE )APP_CFG_TASK_COM_STK_SIZE,
 186:APP/app.c     ****                (OS_MSG_QTY   )10u,
 187:APP/app.c     ****                (OS_TICK      )0u,
 188:APP/app.c     ****                (void        *)0,
 189:APP/app.c     ****                (OS_OPT       )(OS_OPT_TASK_STK_CHK | OS_OPT_TASK_STK_CLR),
 190:APP/app.c     ****                (OS_ERR      *)&os_err);
 191:APP/app.c     ****   /* create PRESS task */
 192:APP/app.c     ****   OSTaskCreate((OS_TCB      *)&App_TaskPRESS_TCB,
  66              		.loc 1 192 0
  67 0040 0897     		str	r7, [sp, #32]
  68 0042 0796     		str	r6, [sp, #28]
  69 0044 0694     		str	r4, [sp, #24]
  70 0046 0594     		str	r4, [sp, #20]
  71 0048 CDF81080 		str	r8, [sp, #16]
  72 004c 4FF40073 		mov	r3, #512
  73 0050 0393     		str	r3, [sp, #12]
  74 0052 3323     		movs	r3, #51
  75 0054 0293     		str	r3, [sp, #8]
  76 0056 05F5B063 		add	r3, r5, #1408
  77 005a 0193     		str	r3, [sp, #4]
  78 005c 0096     		str	r6, [sp]
  79 005e 2346     		mov	r3, r4
  80 0060 074A     		ldr	r2, .L3+12
  81 0062 0849     		ldr	r1, .L3+16
  82 0064 05F59860 		add	r0, r5, #1216
  83 0068 FFF7FEFF 		bl	OSTaskCreate
  84              	.LVL1:
 193:APP/app.c     ****                (CPU_CHAR    *)"TaskPRESS",
 194:APP/app.c     ****                (OS_TASK_PTR  )App_TaskPRESS, 
 195:APP/app.c     ****                (void        *)0,
 196:APP/app.c     ****                (OS_PRIO      )APP_CFG_TASK_PRESS_PRIO,
 197:APP/app.c     ****                (CPU_STK     *)&App_TaskPRESSStk[0],
 198:APP/app.c     ****                (CPU_STK_SIZE )APP_CFG_TASK_PRESS_STK_SIZE_LIMIT,
 199:APP/app.c     ****                (CPU_STK_SIZE )APP_CFG_TASK_PRESS_STK_SIZE,
 200:APP/app.c     ****                (OS_MSG_QTY   )10u,
 201:APP/app.c     ****                (OS_TICK      )0u,
ARM GAS  C:\Users\filip\AppData\Local\Temp\ccRbv8Vp.s 			page 6


 202:APP/app.c     ****                (void        *)0,
 203:APP/app.c     ****                (OS_OPT       )(OS_OPT_TASK_STK_CHK | OS_OPT_TASK_STK_CLR),
 204:APP/app.c     ****                (OS_ERR      *)&os_err);
 205:APP/app.c     **** }
  85              		.loc 1 205 0
  86 006c 0CB0     		add	sp, sp, #48
  87              		.cfi_def_cfa_offset 24
  88              		@ sp needed
  89 006e BDE8F081 		pop	{r4, r5, r6, r7, r8, pc}
  90              	.L4:
  91 0072 00BF     		.align	2
  92              	.L3:
  93 0074 00000000 		.word	.LANCHOR0
  94 0078 00000000 		.word	App_TaskCOM
  95 007c 00000000 		.word	.LC0
  96 0080 00000000 		.word	App_TaskPRESS
  97 0084 08000000 		.word	.LC1
  98              		.cfi_endproc
  99              	.LFE3:
 100              		.size	App_TaskCreate, .-App_TaskCreate
 101              		.section	.text.App_TaskStart,"ax",%progbits
 102              		.align	2
 103              		.thumb
 104              		.thumb_func
 105              		.type	App_TaskStart, %function
 106              	App_TaskStart:
 107              	.LFB2:
 126:APP/app.c     ****   OS_ERR       err;
 108              		.loc 1 126 0
 109              		.cfi_startproc
 110              		@ args = 0, pretend = 0, frame = 8
 111              		@ frame_needed = 0, uses_anonymous_args = 0
 112              	.LVL2:
 113 0000 00B5     		push	{lr}
 114              		.cfi_def_cfa_offset 4
 115              		.cfi_offset 14, -4
 116 0002 85B0     		sub	sp, sp, #20
 117              		.cfi_def_cfa_offset 24
 131:APP/app.c     ****   
 118              		.loc 1 131 0
 119 0004 FFF7FEFF 		bl	BSP_PostInit
 120              	.LVL3:
 133:APP/app.c     ****   
 121              		.loc 1 133 0
 122 0008 FFF7FEFF 		bl	BSP_CPU_TickInit
 123              	.LVL4:
 136:APP/app.c     **** #endif    
 124              		.loc 1 136 0
 125 000c 0DF10E00 		add	r0, sp, #14
 126 0010 FFF7FEFF 		bl	OSStatTaskCPUUsageInit
 127              	.LVL5:
 144:APP/app.c     **** 
 128              		.loc 1 144 0
 129 0014 FFF7FEFF 		bl	wait_bmp280_connecting
 130              	.LVL6:
 146:APP/app.c     ****   
 131              		.loc 1 146 0
ARM GAS  C:\Users\filip\AppData\Local\Temp\ccRbv8Vp.s 			page 7


 132 0018 FFF7FEFF 		bl	App_TaskCreate
 133              	.LVL7:
 134              	.L6:
 149:APP/app.c     ****                   OS_OPT_TIME_HMSM_STRICT, 
 135              		.loc 1 149 0 discriminator 1
 136 001c 0DF10E03 		add	r3, sp, #14
 137 0020 0193     		str	r3, [sp, #4]
 138 0022 0020     		movs	r0, #0
 139 0024 0090     		str	r0, [sp]
 140 0026 6423     		movs	r3, #100
 141 0028 0246     		mov	r2, r0
 142 002a 0146     		mov	r1, r0
 143 002c FFF7FEFF 		bl	OSTimeDlyHMSM
 144              	.LVL8:
 145 0030 F4E7     		b	.L6
 146              		.cfi_endproc
 147              	.LFE2:
 148              		.size	App_TaskStart, .-App_TaskStart
 149 0032 00BF     		.section	.text.App_TaskPRESS,"ax",%progbits
 150              		.align	2
 151              		.thumb
 152              		.thumb_func
 153              		.type	App_TaskPRESS, %function
 154              	App_TaskPRESS:
 155              	.LFB4:
 206:APP/app.c     **** 
 207:APP/app.c     **** /*
 208:APP/app.c     **** ***************************************************************************************************
 209:APP/app.c     **** *                                          App_TaskPRESS()
 210:APP/app.c     **** *
 211:APP/app.c     **** * Description : PRESS Task configure the connected bmp280 and read measured 
 212:APP/app.c     **** *               pressure and temperature. After the read it send the data to the
 213:APP/app.c     **** *               COM Task over TaskQ.
 214:APP/app.c     **** *
 215:APP/app.c     **** * Argument(s) : p_arg   is the argument passed to 'App_TaskPRESS()' by 'OSTaskCreate()'.
 216:APP/app.c     **** *
 217:APP/app.c     **** * Return(s)   : none
 218:APP/app.c     **** *
 219:APP/app.c     **** * Note(s)     : none
 220:APP/app.c     **** ***************************************************************************************************
 221:APP/app.c     **** */
 222:APP/app.c     **** 
 223:APP/app.c     **** static void App_TaskPRESS (void *p_arg)
 224:APP/app.c     **** {
 156              		.loc 1 224 0
 157              		.cfi_startproc
 158              		@ args = 0, pretend = 0, frame = 24
 159              		@ frame_needed = 0, uses_anonymous_args = 0
 160              	.LVL9:
 161 0000 30B5     		push	{r4, r5, lr}
 162              		.cfi_def_cfa_offset 12
 163              		.cfi_offset 4, -12
 164              		.cfi_offset 5, -8
 165              		.cfi_offset 14, -4
 166 0002 89B0     		sub	sp, sp, #36
 167              		.cfi_def_cfa_offset 48
 225:APP/app.c     ****   /* declare and define task local variables */
ARM GAS  C:\Users\filip\AppData\Local\Temp\ccRbv8Vp.s 			page 8


 226:APP/app.c     ****   OS_ERR             os_err;
 227:APP/app.c     ****   Bmp280_press_temp  bmp280_data;
 228:APP/app.c     ****   
 229:APP/app.c     ****   /* prevent compiler warnings */
 230:APP/app.c     ****   (void)p_arg;
 231:APP/app.c     ****   
 232:APP/app.c     ****   set_bmp280_config(
 168              		.loc 1 232 0
 169 0004 0023     		movs	r3, #0
 170 0006 0193     		str	r3, [sp, #4]
 171 0008 0122     		movs	r2, #1
 172 000a 0092     		str	r2, [sp]
 173 000c 0322     		movs	r2, #3
 174 000e 0221     		movs	r1, #2
 175 0010 1046     		mov	r0, r2
 176              	.LVL10:
 177 0012 FFF7FEFF 		bl	set_bmp280_config
 178              	.LVL11:
 179              	.L9:
 233:APP/app.c     ****     BMP280_CONFIG_OSRT_T, BMP280_CONFIG_OSRT_P, BMP280_CONFIG_POWER_MODE,
 234:APP/app.c     ****     BMP280_CONFIG_T_STANDBY, BMP280_CONFIG_FILTER, BMP280_CONFIG_SPI3W_EN
 235:APP/app.c     ****   );
 236:APP/app.c     ****   
 237:APP/app.c     ****   /* start of the endless loop */
 238:APP/app.c     ****   while (DEF_TRUE) {
 239:APP/app.c     ****     
 240:APP/app.c     ****     /* read pressure and temperature from bmp280 */
 241:APP/app.c     ****     bmp280_data = get_bmp280_press_temp();
 180              		.loc 1 241 0 discriminator 1
 181 0016 02AD     		add	r5, sp, #8
 182 0018 2846     		mov	r0, r5
 183 001a FFF7FEFF 		bl	get_bmp280_press_temp
 184              	.LVL12:
 185 001e 05AC     		add	r4, sp, #20
 186 0020 95E80300 		ldmia	r5, {r0, r1}
 187 0024 84E80300 		stmia	r4, {r0, r1}
 242:APP/app.c     ****     
 243:APP/app.c     ****     /* send readed bmp280 data to COM Task*/
 244:APP/app.c     ****     OSTaskQPost((OS_TCB      *)&App_TaskCOM_TCB,
 188              		.loc 1 244 0 discriminator 1
 189 0028 0DF11E05 		add	r5, sp, #30
 190 002c 0095     		str	r5, [sp]
 191 002e 0023     		movs	r3, #0
 192 0030 0822     		movs	r2, #8
 193 0032 2146     		mov	r1, r4
 194 0034 0648     		ldr	r0, .L11
 195 0036 FFF7FEFF 		bl	OSTaskQPost
 196              	.LVL13:
 245:APP/app.c     ****                 (CPU_INT08U  *)&bmp280_data,
 246:APP/app.c     ****                 (OS_MSG_SIZE  )sizeof(bmp280_data),
 247:APP/app.c     ****                 (OS_OPT       )OS_OPT_POST_FIFO,
 248:APP/app.c     ****                 (OS_ERR      *)&os_err);
 249:APP/app.c     ****     
 250:APP/app.c     ****     /* initiate scheduler */
 251:APP/app.c     ****     OSTimeDlyHMSM(0, 0, 0, 500,
 197              		.loc 1 251 0 discriminator 1
 198 003a 0195     		str	r5, [sp, #4]
ARM GAS  C:\Users\filip\AppData\Local\Temp\ccRbv8Vp.s 			page 9


 199 003c 0020     		movs	r0, #0
 200 003e 0090     		str	r0, [sp]
 201 0040 4FF4FA73 		mov	r3, #500
 202 0044 0246     		mov	r2, r0
 203 0046 0146     		mov	r1, r0
 204 0048 FFF7FEFF 		bl	OSTimeDlyHMSM
 205              	.LVL14:
 206 004c E3E7     		b	.L9
 207              	.L12:
 208 004e 00BF     		.align	2
 209              	.L11:
 210 0050 00000000 		.word	.LANCHOR0
 211              		.cfi_endproc
 212              	.LFE4:
 213              		.size	App_TaskPRESS, .-App_TaskPRESS
 214              		.section	.text.App_TaskCOM,"ax",%progbits
 215              		.align	2
 216              		.thumb
 217              		.thumb_func
 218              		.type	App_TaskCOM, %function
 219              	App_TaskCOM:
 220              	.LFB5:
 252:APP/app.c     ****                   OS_OPT_TIME_HMSM_STRICT, 
 253:APP/app.c     ****                   &os_err);
 254:APP/app.c     ****   }
 255:APP/app.c     **** }
 256:APP/app.c     **** 
 257:APP/app.c     **** /*
 258:APP/app.c     **** ***************************************************************************************************
 259:APP/app.c     **** *                                          App_TaskCOM()
 260:APP/app.c     **** *
 261:APP/app.c     **** * Description : COM Task wait for a message and send it's data via the UART interface.
 262:APP/app.c     **** *
 263:APP/app.c     **** * Argument(s) : p_arg   is the argument passed to 'App_TaskCOM()' by 'OSTaskCreate()'.
 264:APP/app.c     **** *
 265:APP/app.c     **** * Return(s)   : none
 266:APP/app.c     **** *
 267:APP/app.c     **** * Note(s)     : none
 268:APP/app.c     **** ***************************************************************************************************
 269:APP/app.c     **** */
 270:APP/app.c     **** 
 271:APP/app.c     **** static  void  App_TaskCOM (void *p_arg)
 272:APP/app.c     **** {
 221              		.loc 1 272 0
 222              		.cfi_startproc
 223              		@ args = 0, pretend = 0, frame = 8
 224              		@ frame_needed = 0, uses_anonymous_args = 0
 225              	.LVL15:
 226 0000 00B5     		push	{lr}
 227              		.cfi_def_cfa_offset 4
 228              		.cfi_offset 14, -4
 229 0002 85B0     		sub	sp, sp, #20
 230              		.cfi_def_cfa_offset 24
 231              	.LVL16:
 232              	.L14:
 273:APP/app.c     ****   /* declare and define task local variables */
 274:APP/app.c     ****   OS_ERR             os_err;
ARM GAS  C:\Users\filip\AppData\Local\Temp\ccRbv8Vp.s 			page 10


 275:APP/app.c     ****   OS_MSG_SIZE        msg_size;
 276:APP/app.c     ****   Bmp280_press_temp* p_rx_msg;
 277:APP/app.c     ****   
 278:APP/app.c     ****   /* prevent compiler warnings */
 279:APP/app.c     ****   (void)p_arg;
 280:APP/app.c     ****   
 281:APP/app.c     ****   /* start of the endless loop */
 282:APP/app.c     ****   while (DEF_TRUE) {
 283:APP/app.c     ****     
 284:APP/app.c     ****     /* wait for message */
 285:APP/app.c     ****     p_rx_msg = OSTaskQPend(0, OS_OPT_PEND_BLOCKING, &msg_size, (CPU_TS *)0, &os_err);
 233              		.loc 1 285 0
 234 0004 0DF10E03 		add	r3, sp, #14
 235 0008 0093     		str	r3, [sp]
 236 000a 0023     		movs	r3, #0
 237 000c 03AA     		add	r2, sp, #12
 238 000e 1946     		mov	r1, r3
 239 0010 1846     		mov	r0, r3
 240 0012 FFF7FEFF 		bl	OSTaskQPend
 241              	.LVL17:
 286:APP/app.c     ****     
 287:APP/app.c     ****     if (os_err == OS_ERR_NONE) {
 242              		.loc 1 287 0
 243 0016 BDF80E30 		ldrh	r3, [sp, #14]
 244 001a 002B     		cmp	r3, #0
 245 001c F2D1     		bne	.L14
 288:APP/app.c     ****       /* if message received */
 289:APP/app.c     ****       uart_send_press_temp(*p_rx_msg);
 246              		.loc 1 289 0
 247 001e 03C8     		ldmia	r0, {r0, r1}
 248              	.LVL18:
 249 0020 FFF7FEFF 		bl	uart_send_press_temp
 250              	.LVL19:
 251 0024 EEE7     		b	.L14
 252              		.cfi_endproc
 253              	.LFE5:
 254              		.size	App_TaskCOM, .-App_TaskCOM
 255 0026 00BF     		.section	.text.main,"ax",%progbits
 256              		.align	2
 257              		.global	main
 258              		.thumb
 259              		.thumb_func
 260              		.type	main, %function
 261              	main:
 262              	.LFB1:
  82:APP/app.c     ****   OS_ERR  os_err;
 263              		.loc 1 82 0
 264              		.cfi_startproc
 265              		@ args = 0, pretend = 0, frame = 8
 266              		@ frame_needed = 0, uses_anonymous_args = 0
 267 0000 30B5     		push	{r4, r5, lr}
 268              		.cfi_def_cfa_offset 12
 269              		.cfi_offset 4, -12
 270              		.cfi_offset 5, -8
 271              		.cfi_offset 14, -4
 272 0002 8DB0     		sub	sp, sp, #52
 273              		.cfi_def_cfa_offset 64
ARM GAS  C:\Users\filip\AppData\Local\Temp\ccRbv8Vp.s 			page 11


  85:APP/app.c     **** 
 274              		.loc 1 85 0
 275 0004 FFF7FEFF 		bl	BSP_PreInit
 276              	.LVL20:
  87:APP/app.c     **** 
 277              		.loc 1 87 0
 278 0008 FFF7FEFF 		bl	CPU_Init
 279              	.LVL21:
  89:APP/app.c     ****   
 280              		.loc 1 89 0
 281 000c 0DF12E05 		add	r5, sp, #46
 282 0010 2846     		mov	r0, r5
 283 0012 FFF7FEFF 		bl	OSInit
 284              	.LVL22:
  91:APP/app.c     ****                (CPU_CHAR    *)"Start",
 285              		.loc 1 91 0
 286 0016 0F48     		ldr	r0, .L19
 287 0018 0895     		str	r5, [sp, #32]
 288 001a 0323     		movs	r3, #3
 289 001c 0793     		str	r3, [sp, #28]
 290 001e 0024     		movs	r4, #0
 291 0020 0694     		str	r4, [sp, #24]
 292 0022 0594     		str	r4, [sp, #20]
 293 0024 0494     		str	r4, [sp, #16]
 294 0026 8023     		movs	r3, #128
 295 0028 0393     		str	r3, [sp, #12]
 296 002a 0C23     		movs	r3, #12
 297 002c 0293     		str	r3, [sp, #8]
 298 002e 00F56463 		add	r3, r0, #3648
 299 0032 0193     		str	r3, [sp, #4]
 300 0034 0223     		movs	r3, #2
 301 0036 0093     		str	r3, [sp]
 302 0038 2346     		mov	r3, r4
 303 003a 074A     		ldr	r2, .L19+4
 304 003c 0749     		ldr	r1, .L19+8
 305 003e 00F55860 		add	r0, r0, #3456
 306 0042 FFF7FEFF 		bl	OSTaskCreate
 307              	.LVL23:
 105:APP/app.c     **** }
 308              		.loc 1 105 0
 309 0046 2846     		mov	r0, r5
 310 0048 FFF7FEFF 		bl	OSStart
 311              	.LVL24:
 106:APP/app.c     **** 
 312              		.loc 1 106 0
 313 004c 2046     		mov	r0, r4
 314 004e 0DB0     		add	sp, sp, #52
 315              		.cfi_def_cfa_offset 12
 316              		@ sp needed
 317 0050 30BD     		pop	{r4, r5, pc}
 318              	.L20:
 319 0052 00BF     		.align	2
 320              	.L19:
 321 0054 00000000 		.word	.LANCHOR0
 322 0058 00000000 		.word	App_TaskStart
 323 005c 14000000 		.word	.LC2
 324              		.cfi_endproc
ARM GAS  C:\Users\filip\AppData\Local\Temp\ccRbv8Vp.s 			page 12


 325              	.LFE1:
 326              		.size	main, .-main
 327              		.section	.rodata.str1.4,"aMS",%progbits,1
 328              		.align	2
 329              	.LC0:
 330 0000 5461736B 		.ascii	"TaskCOM\000"
 330      434F4D00 
 331              	.LC1:
 332 0008 5461736B 		.ascii	"TaskPRESS\000"
 332      50524553 
 332      5300
 333 0012 0000     		.space	2
 334              	.LC2:
 335 0014 53746172 		.ascii	"Start\000"
 335      7400
 336              		.bss
 337              		.align	2
 338              		.set	.LANCHOR0,. + 0
 339              		.type	App_TaskCOM_TCB, %object
 340              		.size	App_TaskCOM_TCB, 192
 341              	App_TaskCOM_TCB:
 342 0000 00000000 		.space	192
 342      00000000 
 342      00000000 
 342      00000000 
 342      00000000 
 343              		.type	App_TaskCOMStk, %object
 344              		.size	App_TaskCOMStk, 1024
 345              	App_TaskCOMStk:
 346 00c0 00000000 		.space	1024
 346      00000000 
 346      00000000 
 346      00000000 
 346      00000000 
 347              		.type	App_TaskPRESS_TCB, %object
 348              		.size	App_TaskPRESS_TCB, 192
 349              	App_TaskPRESS_TCB:
 350 04c0 00000000 		.space	192
 350      00000000 
 350      00000000 
 350      00000000 
 350      00000000 
 351              		.type	App_TaskPRESSStk, %object
 352              		.size	App_TaskPRESSStk, 2048
 353              	App_TaskPRESSStk:
 354 0580 00000000 		.space	2048
 354      00000000 
 354      00000000 
 354      00000000 
 354      00000000 
 355              		.type	App_TaskStartTCB, %object
 356              		.size	App_TaskStartTCB, 192
 357              	App_TaskStartTCB:
 358 0d80 00000000 		.space	192
 358      00000000 
 358      00000000 
 358      00000000 
ARM GAS  C:\Users\filip\AppData\Local\Temp\ccRbv8Vp.s 			page 13


 358      00000000 
 359              		.type	App_TaskStartStk, %object
 360              		.size	App_TaskStartStk, 512
 361              	App_TaskStartStk:
 362 0e40 00000000 		.space	512
 362      00000000 
 362      00000000 
 362      00000000 
 362      00000000 
 363              		.text
 364              	.Letext0:
 365              		.file 2 ".\\uC-CPU\\ARM-Cortex-M3\\GNU/cpu.h"
 366              		.file 3 ".\\uC-CPU/cpu_core.h"
 367              		.file 4 ".\\uCOS-III\\Source/os_type.h"
 368              		.file 5 ".\\uCOS-III\\Source/os.h"
 369              		.file 6 "./bmp280.h"
 370              		.file 7 ".\\BSP/bsp.h"
 371              		.file 8 "./bsp_uart.h"