ARM GAS  C:\Users\filip\AppData\Local\Temp\ccyO0jjj.s 			page 1


   1              		.syntax unified
   2              		.cpu cortex-m3
   3              		.fpu softvfp
   4              		.eabi_attribute 20, 1
   5              		.eabi_attribute 21, 1
   6              		.eabi_attribute 23, 3
   7              		.eabi_attribute 24, 1
   8              		.eabi_attribute 25, 1
   9              		.eabi_attribute 26, 1
  10              		.eabi_attribute 30, 1
  11              		.eabi_attribute 34, 1
  12              		.eabi_attribute 18, 4
  13              		.thumb
  14              		.syntax unified
  15              		.file	"bmp280.c"
  16              		.text
  17              	.Ltext0:
  18              		.cfi_sections	.debug_frame
  19              		.section	.text.bmp280_spi_read,"ax",%progbits
  20              		.align	2
  21              		.global	bmp280_spi_read
  22              		.thumb
  23              		.thumb_func
  24              		.type	bmp280_spi_read, %function
  25              	bmp280_spi_read:
  26              	.LFB0:
  27              		.file 1 "bmp280.c"
   1:bmp280.c      **** /* ========================================
   2:bmp280.c      ****  *
   3:bmp280.c      ****  * Copyright YOUR COMPANY, THE YEAR
   4:bmp280.c      ****  * All Rights Reserved
   5:bmp280.c      ****  * UNPUBLISHED, LICENSED SOFTWARE.
   6:bmp280.c      ****  *
   7:bmp280.c      ****  * CONFIDENTIAL AND PROPRIETARY INFORMATION
   8:bmp280.c      ****  * WHICH IS THE PROPERTY OF your company.
   9:bmp280.c      ****  *
  10:bmp280.c      ****  * ========================================
  11:bmp280.c      **** */
  12:bmp280.c      **** 
  13:bmp280.c      **** #include <bmp280.h>
  14:bmp280.c      **** 
  15:bmp280.c      **** /*
  16:bmp280.c      **** ***************************************************************************************************
  17:bmp280.c      **** *                                     bmp280_spi_read()
  18:bmp280.c      **** *
  19:bmp280.c      **** * Description : This function waits for the spi interface to be in status done 
  20:bmp280.c      **** *               or idle and then sends the spi register address over the spi 
  21:bmp280.c      **** *               interface and returns first received byte from the slave. 
  22:bmp280.c      **** *               Regarding the datasheet of bmp280 bit7 of the register address 
  23:bmp280.c      **** *               is set to 1.
  24:bmp280.c      **** *
  25:bmp280.c      **** * Argument(s) : none.
  26:bmp280.c      **** *
  27:bmp280.c      **** * Return(s)   : First received byte from bmp280
  28:bmp280.c      **** *
  29:bmp280.c      **** * Caller(s)   : Application.
  30:bmp280.c      **** *
ARM GAS  C:\Users\filip\AppData\Local\Temp\ccyO0jjj.s 			page 2


  31:bmp280.c      **** * Note(s)     : Not re-entrant.
  32:bmp280.c      **** ***************************************************************************************************
  33:bmp280.c      **** */
  34:bmp280.c      **** 
  35:bmp280.c      **** CPU_INT08U bmp280_spi_read(CPU_INT08U spi_reg_addr)
  36:bmp280.c      **** {
  28              		.loc 1 36 0
  29              		.cfi_startproc
  30              		@ args = 0, pretend = 0, frame = 0
  31              		@ frame_needed = 0, uses_anonymous_args = 0
  32              	.LVL0:
  33 0000 10B5     		push	{r4, lr}
  34              		.cfi_def_cfa_offset 8
  35              		.cfi_offset 4, -8
  36              		.cfi_offset 14, -4
  37 0002 0446     		mov	r4, r0
  37:bmp280.c      ****   /* clear spi buffer and wait for spi to be ready for sending */
  38:bmp280.c      ****   prepare_and_wait_spi_send();
  38              		.loc 1 38 0
  39 0004 FFF7FEFF 		bl	prepare_and_wait_spi_send
  40              	.LVL1:
  39:bmp280.c      ****   /* Send register address (set bit7 (R/W) to 1) and a second byte to be able to 
  40:bmp280.c      ****      receive the real data byte of the register address, otherwise SPIM_1 set 
  41:bmp280.c      ****      CS_1 to 1 after sending the first byte and the desired byte never comes.
  42:bmp280.c      ****   */
  43:bmp280.c      ****   spi_send_n_bytes(spi_reg_addr | (1<<7), 2);
  41              		.loc 1 43 0
  42 0008 0221     		movs	r1, #2
  43 000a 44F08000 		orr	r0, r4, #128
  44 000e FFF7FEFF 		bl	spi_send_n_bytes
  45              	.LVL2:
  44:bmp280.c      ****   /* wait to send data over spi */
  45:bmp280.c      ****   wait_spi_tx();
  46              		.loc 1 45 0
  47 0012 FFF7FEFF 		bl	wait_spi_tx
  48              	.LVL3:
  46:bmp280.c      ****   /* return received data byte */
  47:bmp280.c      ****   return spi_get_byte();
  49              		.loc 1 47 0
  50 0016 FFF7FEFF 		bl	spi_get_byte
  51              	.LVL4:
  48:bmp280.c      **** }
  52              		.loc 1 48 0
  53 001a 10BD     		pop	{r4, pc}
  54              		.cfi_endproc
  55              	.LFE0:
  56              		.size	bmp280_spi_read, .-bmp280_spi_read
  57              		.section	.text.bmp280_spi_read_multiple,"ax",%progbits
  58              		.align	2
  59              		.global	bmp280_spi_read_multiple
  60              		.thumb
  61              		.thumb_func
  62              		.type	bmp280_spi_read_multiple, %function
  63              	bmp280_spi_read_multiple:
  64              	.LFB1:
  49:bmp280.c      **** 
  50:bmp280.c      **** /*
ARM GAS  C:\Users\filip\AppData\Local\Temp\ccyO0jjj.s 			page 3


  51:bmp280.c      **** ***************************************************************************************************
  52:bmp280.c      **** *                                   bmp280_spi_read_multiple()
  53:bmp280.c      **** *
  54:bmp280.c      **** * Description : This function waits for the spi interface to be in status done 
  55:bmp280.c      **** *               or idle and then sends the spi register address over the spi 
  56:bmp280.c      **** *               interface. Finally it writes read_size bytes from the spi rx 
  57:bmp280.c      **** *               buffer to the reg_values array. Regarding the datasheet of 
  58:bmp280.c      **** *               bmp280 bit7 of the register address is set to 1.
  59:bmp280.c      **** *
  60:bmp280.c      **** * Argument(s) : spi_reg_addr ... first byte that is written to spi tx buffer 
  61:bmp280.c      **** *               reg_values ... array where data received over spi is written
  62:bmp280.c      **** *               read_size ... amount of bytes to be read from spi rx buffer
  63:bmp280.c      **** *
  64:bmp280.c      **** * Return(s)   : none.
  65:bmp280.c      **** *
  66:bmp280.c      **** * Caller(s)   : Application.
  67:bmp280.c      **** *
  68:bmp280.c      **** * Note(s)     : Not re-entrant.
  69:bmp280.c      **** ***************************************************************************************************
  70:bmp280.c      **** */
  71:bmp280.c      **** 
  72:bmp280.c      **** CPU_VOID bmp280_spi_read_multiple(CPU_INT08U spi_reg_addr, CPU_INT08U reg_values[], CPU_INT08U read
  73:bmp280.c      **** {
  65              		.loc 1 73 0
  66              		.cfi_startproc
  67              		@ args = 0, pretend = 0, frame = 0
  68              		@ frame_needed = 0, uses_anonymous_args = 0
  69              	.LVL5:
  70 0000 70B5     		push	{r4, r5, r6, lr}
  71              		.cfi_def_cfa_offset 16
  72              		.cfi_offset 4, -16
  73              		.cfi_offset 5, -12
  74              		.cfi_offset 6, -8
  75              		.cfi_offset 14, -4
  76 0002 0646     		mov	r6, r0
  77 0004 0D46     		mov	r5, r1
  78 0006 1446     		mov	r4, r2
  74:bmp280.c      ****   /* clear spi buffer and wait for spi to be ready for sending */
  75:bmp280.c      ****   prepare_and_wait_spi_send();
  79              		.loc 1 75 0
  80 0008 FFF7FEFF 		bl	prepare_and_wait_spi_send
  81              	.LVL6:
  76:bmp280.c      ****   /* Send register address (set bit7 (R/W) to 1) and read_size more bytes */
  77:bmp280.c      ****   spi_send_n_bytes(spi_reg_addr | (1<<7), read_size+1);
  82              		.loc 1 77 0
  83 000c 611C     		adds	r1, r4, #1
  84 000e C9B2     		uxtb	r1, r1
  85 0010 46F08000 		orr	r0, r6, #128
  86 0014 FFF7FEFF 		bl	spi_send_n_bytes
  87              	.LVL7:
  78:bmp280.c      ****   /* wait to send data over spi */
  79:bmp280.c      ****   wait_spi_tx();
  88              		.loc 1 79 0
  89 0018 FFF7FEFF 		bl	wait_spi_tx
  90              	.LVL8:
  80:bmp280.c      ****   /* write read_size received data bytes to reg_values array */
  81:bmp280.c      ****   spi_get_n_bytes(reg_values, read_size);
ARM GAS  C:\Users\filip\AppData\Local\Temp\ccyO0jjj.s 			page 4


  91              		.loc 1 81 0
  92 001c 2146     		mov	r1, r4
  93 001e 2846     		mov	r0, r5
  94 0020 FFF7FEFF 		bl	spi_get_n_bytes
  95              	.LVL9:
  96 0024 70BD     		pop	{r4, r5, r6, pc}
  97              		.cfi_endproc
  98              	.LFE1:
  99              		.size	bmp280_spi_read_multiple, .-bmp280_spi_read_multiple
 100 0026 00BF     		.section	.text.bmp280_spi_write,"ax",%progbits
 101              		.align	2
 102              		.global	bmp280_spi_write
 103              		.thumb
 104              		.thumb_func
 105              		.type	bmp280_spi_write, %function
 106              	bmp280_spi_write:
 107              	.LFB2:
  82:bmp280.c      **** }
  83:bmp280.c      **** 
  84:bmp280.c      **** /*
  85:bmp280.c      **** ***************************************************************************************************
  86:bmp280.c      **** *                                       bmp280_spi_write()
  87:bmp280.c      **** *
  88:bmp280.c      **** * Description : This function send one register address byte and the corresponding data byte over s
  89:bmp280.c      **** *
  90:bmp280.c      **** * Argument(s) : spi_reg_addr ... address byte
  91:bmp280.c      **** *               spi_reg_data ... data byte
  92:bmp280.c      **** *
  93:bmp280.c      **** * Return(s)   : none.
  94:bmp280.c      **** *
  95:bmp280.c      **** * Caller(s)   : Application.
  96:bmp280.c      **** *
  97:bmp280.c      **** * Note(s)     : Not re-entrant.
  98:bmp280.c      **** ***************************************************************************************************
  99:bmp280.c      **** */
 100:bmp280.c      **** 
 101:bmp280.c      **** CPU_VOID bmp280_spi_write(CPU_INT08U spi_reg_addr, CPU_INT08U spi_reg_data)
 102:bmp280.c      **** {
 108              		.loc 1 102 0
 109              		.cfi_startproc
 110              		@ args = 0, pretend = 0, frame = 0
 111              		@ frame_needed = 0, uses_anonymous_args = 0
 112              	.LVL10:
 113 0000 10B5     		push	{r4, lr}
 114              		.cfi_def_cfa_offset 8
 115              		.cfi_offset 4, -8
 116              		.cfi_offset 14, -4
 117 0002 0C46     		mov	r4, r1
 103:bmp280.c      ****   spi_send_n_bytes(spi_reg_addr & ~(1<<7), 1);
 118              		.loc 1 103 0
 119 0004 0121     		movs	r1, #1
 120              	.LVL11:
 121 0006 00F07F00 		and	r0, r0, #127
 122              	.LVL12:
 123 000a FFF7FEFF 		bl	spi_send_n_bytes
 124              	.LVL13:
 104:bmp280.c      ****   spi_send_n_bytes(spi_reg_data, 1);
ARM GAS  C:\Users\filip\AppData\Local\Temp\ccyO0jjj.s 			page 5


 125              		.loc 1 104 0
 126 000e 0121     		movs	r1, #1
 127 0010 2046     		mov	r0, r4
 128 0012 FFF7FEFF 		bl	spi_send_n_bytes
 129              	.LVL14:
 130 0016 10BD     		pop	{r4, pc}
 131              		.cfi_endproc
 132              	.LFE2:
 133              		.size	bmp280_spi_write, .-bmp280_spi_write
 134              		.section	.text.set_bmp280_config,"ax",%progbits
 135              		.align	2
 136              		.global	set_bmp280_config
 137              		.thumb
 138              		.thumb_func
 139              		.type	set_bmp280_config, %function
 140              	set_bmp280_config:
 141              	.LFB3:
 105:bmp280.c      **** }
 106:bmp280.c      **** 
 107:bmp280.c      **** /*
 108:bmp280.c      **** ***************************************************************************************************
 109:bmp280.c      **** *                                   set_bmp280_config()
 110:bmp280.c      **** *
 111:bmp280.c      **** * Description : This function configure the bmp280 by setting data in the config and control measur
 112:bmp280.c      **** *               register.
 113:bmp280.c      **** *
 114:bmp280.c      **** * Argument(s) : osrt_t ... oversampling rate for temperature measurement
 115:bmp280.c      **** *               osrt_p ... oversampling rate for pressure measurement
 116:bmp280.c      **** *               power_mode ... power mode of the bmp280
 117:bmp280.c      **** *               t_standby ... standby time between measurements
 118:bmp280.c      **** *               filter ... filter settings
 119:bmp280.c      **** *               spi3w_en ... 3-wire-spi configuration enable / disable 
 120:bmp280.c      **** *
 121:bmp280.c      **** * Return(s)   : none.
 122:bmp280.c      **** *
 123:bmp280.c      **** * Caller(s)   : Application.
 124:bmp280.c      **** *
 125:bmp280.c      **** * Note(s)     : Not re-entrant.
 126:bmp280.c      **** ***************************************************************************************************
 127:bmp280.c      **** */
 128:bmp280.c      **** 
 129:bmp280.c      **** CPU_VOID set_bmp280_config(CPU_INT08U osrt_t, CPU_INT08U osrt_p, 
 130:bmp280.c      ****                            CPU_INT08U power_mode, CPU_INT08U t_standby, 
 131:bmp280.c      ****                            CPU_INT08U filter, CPU_INT08U spi3w_en)
 132:bmp280.c      **** {
 142              		.loc 1 132 0
 143              		.cfi_startproc
 144              		@ args = 8, pretend = 0, frame = 0
 145              		@ frame_needed = 0, uses_anonymous_args = 0
 146              	.LVL15:
 147 0000 F8B5     		push	{r3, r4, r5, r6, r7, lr}
 148              		.cfi_def_cfa_offset 24
 149              		.cfi_offset 3, -24
 150              		.cfi_offset 4, -20
 151              		.cfi_offset 5, -16
 152              		.cfi_offset 6, -12
 153              		.cfi_offset 7, -8
ARM GAS  C:\Users\filip\AppData\Local\Temp\ccyO0jjj.s 			page 6


 154              		.cfi_offset 14, -4
 155 0002 0446     		mov	r4, r0
 156 0004 0D46     		mov	r5, r1
 157 0006 1646     		mov	r6, r2
 158 0008 1F46     		mov	r7, r3
 133:bmp280.c      ****   /* clear spi buffer and wait for spi to be ready for sending */
 134:bmp280.c      ****   prepare_and_wait_spi_send();
 159              		.loc 1 134 0
 160 000a FFF7FEFF 		bl	prepare_and_wait_spi_send
 161              	.LVL16:
 135:bmp280.c      ****   /* Go to sleep mode to be able to set data in config register */
 136:bmp280.c      ****   bmp280_spi_write(
 137:bmp280.c      ****     BMP280_REG_CTRL_MEAS,
 138:bmp280.c      ****     (osrt_t<<BMP280_OSRT_T_POS)|(osrt_p<<BMP280_OSRT_P_POS)|(BMP280_POWER_MODE_SLEEP<<BMP280_POWER_
 162              		.loc 1 138 0
 163 000e AD00     		lsls	r5, r5, #2
 136:bmp280.c      ****     BMP280_REG_CTRL_MEAS,
 164              		.loc 1 136 0
 165 0010 45EA4414 		orr	r4, r5, r4, lsl #5
 166 0014 64B2     		sxtb	r4, r4
 167 0016 04F0FC01 		and	r1, r4, #252
 168 001a F420     		movs	r0, #244
 169 001c FFF7FEFF 		bl	bmp280_spi_write
 170              	.LVL17:
 139:bmp280.c      ****   );
 140:bmp280.c      ****   /* wait to send data over spi */
 141:bmp280.c      ****   wait_spi_tx();
 171              		.loc 1 141 0
 172 0020 FFF7FEFF 		bl	wait_spi_tx
 173              	.LVL18:
 142:bmp280.c      ****   /* clear spi buffer and wait for spi to be ready for sending */
 143:bmp280.c      ****   prepare_and_wait_spi_send();
 174              		.loc 1 143 0
 175 0024 FFF7FEFF 		bl	prepare_and_wait_spi_send
 176              	.LVL19:
 144:bmp280.c      ****   /* write data to the config register */
 145:bmp280.c      ****   bmp280_spi_write(
 146:bmp280.c      ****     BMP280_REG_CONFIG, 
 147:bmp280.c      ****     (t_standby<<BMP280_T_STANDBY_POS)|(filter<<BMP280_FILTER_POS)|(spi3w_en<<BMP280_SPI3W_EN_POS)
 177              		.loc 1 147 0
 178 0028 9DF81830 		ldrb	r3, [sp, #24]	@ zero_extendqisi2
 179 002c 9B00     		lsls	r3, r3, #2
 145:bmp280.c      ****     BMP280_REG_CONFIG, 
 180              		.loc 1 145 0
 181 002e 43EA4713 		orr	r3, r3, r7, lsl #5
 182 0032 9DF81C10 		ldrb	r1, [sp, #28]	@ zero_extendqisi2
 183 0036 1943     		orrs	r1, r1, r3
 184 0038 C9B2     		uxtb	r1, r1
 185 003a F520     		movs	r0, #245
 186 003c FFF7FEFF 		bl	bmp280_spi_write
 187              	.LVL20:
 148:bmp280.c      ****   );
 149:bmp280.c      ****   /* wait to send data over spi */
 150:bmp280.c      ****   wait_spi_tx();
 188              		.loc 1 150 0
 189 0040 FFF7FEFF 		bl	wait_spi_tx
 190              	.LVL21:
ARM GAS  C:\Users\filip\AppData\Local\Temp\ccyO0jjj.s 			page 7


 151:bmp280.c      ****   /* clear spi buffer and wait for spi to be ready for sending */
 152:bmp280.c      ****   prepare_and_wait_spi_send();
 191              		.loc 1 152 0
 192 0044 FFF7FEFF 		bl	prepare_and_wait_spi_send
 193              	.LVL22:
 153:bmp280.c      ****   /* write data to the control measurements register register */
 154:bmp280.c      ****   bmp280_spi_write(
 194              		.loc 1 154 0
 195 0048 44EA0601 		orr	r1, r4, r6
 196 004c C9B2     		uxtb	r1, r1
 197 004e F420     		movs	r0, #244
 198 0050 FFF7FEFF 		bl	bmp280_spi_write
 199              	.LVL23:
 155:bmp280.c      ****     BMP280_REG_CTRL_MEAS, 
 156:bmp280.c      ****     (osrt_t<<BMP280_OSRT_T_POS)|(osrt_p<<BMP280_OSRT_P_POS)|(power_mode<<BMP280_POWER_MODE_POS)
 157:bmp280.c      ****   );
 158:bmp280.c      ****   /* wait to send data over spi */
 159:bmp280.c      ****   wait_spi_tx();
 200              		.loc 1 159 0
 201 0054 FFF7FEFF 		bl	wait_spi_tx
 202              	.LVL24:
 203 0058 F8BD     		pop	{r3, r4, r5, r6, r7, pc}
 204              		.cfi_endproc
 205              	.LFE3:
 206              		.size	set_bmp280_config, .-set_bmp280_config
 207 005a 00BF     		.section	.text.wait_bmp280_connecting,"ax",%progbits
 208              		.align	2
 209              		.global	wait_bmp280_connecting
 210              		.thumb
 211              		.thumb_func
 212              		.type	wait_bmp280_connecting, %function
 213              	wait_bmp280_connecting:
 214              	.LFB4:
 160:bmp280.c      **** }
 161:bmp280.c      **** 
 162:bmp280.c      **** /*
 163:bmp280.c      **** ***************************************************************************************************
 164:bmp280.c      **** *                                       wait_bmp280_connecting()
 165:bmp280.c      **** *
 166:bmp280.c      **** * Description : This function waits until the register id of the bmp280 will be returned over spi a
 167:bmp280.c      **** *               sending the register id address. Consider that this is a blocking function.
 168:bmp280.c      **** *
 169:bmp280.c      **** * Argument(s) : none.
 170:bmp280.c      **** *
 171:bmp280.c      **** * Return(s)   : none.
 172:bmp280.c      **** *
 173:bmp280.c      **** * Caller(s)   : Application.
 174:bmp280.c      **** *
 175:bmp280.c      **** * Note(s)     : Not re-entrant.
 176:bmp280.c      **** ***************************************************************************************************
 177:bmp280.c      **** */
 178:bmp280.c      **** 
 179:bmp280.c      **** CPU_VOID wait_bmp280_connecting(CPU_VOID)
 180:bmp280.c      **** {
 215              		.loc 1 180 0
 216              		.cfi_startproc
 217              		@ args = 0, pretend = 0, frame = 0
ARM GAS  C:\Users\filip\AppData\Local\Temp\ccyO0jjj.s 			page 8


 218              		@ frame_needed = 0, uses_anonymous_args = 0
 219 0000 10B5     		push	{r4, lr}
 220              		.cfi_def_cfa_offset 8
 221              		.cfi_offset 4, -8
 222              		.cfi_offset 14, -4
 223              	.LVL25:
 181:bmp280.c      ****   CPU_INT08U reg_value = 0u;
 224              		.loc 1 181 0
 225 0002 0024     		movs	r4, #0
 226              	.LVL26:
 227              	.L11:
 182:bmp280.c      ****   
 183:bmp280.c      ****   do {
 184:bmp280.c      ****     /* clear spi buffer and wait for spi to be ready for sending */
 185:bmp280.c      ****     prepare_and_wait_spi_send();
 228              		.loc 1 185 0
 229 0004 FFF7FEFF 		bl	prepare_and_wait_spi_send
 230              	.LVL27:
 186:bmp280.c      ****     spi_send_n_bytes(BMP280_REG_ID | (1<<7), 2);
 231              		.loc 1 186 0
 232 0008 0221     		movs	r1, #2
 233 000a D020     		movs	r0, #208
 234 000c FFF7FEFF 		bl	spi_send_n_bytes
 235              	.LVL28:
 187:bmp280.c      ****     /* wait to send data over spi */
 188:bmp280.c      ****     wait_spi_tx();
 236              		.loc 1 188 0
 237 0010 FFF7FEFF 		bl	wait_spi_tx
 238              	.LVL29:
 189:bmp280.c      ****     if(SPIM_1_GetRxBufferSize() != 0) 
 239              		.loc 1 189 0
 240 0014 FFF7FEFF 		bl	SPIM_1_GetRxBufferSize
 241              	.LVL30:
 242 0018 20B1     		cbz	r0, .L10
 190:bmp280.c      ****     {
 191:bmp280.c      ****       SPIM_1_ReadRxData(); // No valid data
 243              		.loc 1 191 0
 244 001a FFF7FEFF 		bl	SPIM_1_ReadRxData
 245              	.LVL31:
 192:bmp280.c      ****       reg_value = SPIM_1_ReadRxData();
 246              		.loc 1 192 0
 247 001e FFF7FEFF 		bl	SPIM_1_ReadRxData
 248              	.LVL32:
 249 0022 0446     		mov	r4, r0
 250              	.LVL33:
 251              	.L10:
 193:bmp280.c      ****     }
 194:bmp280.c      ****   } while(reg_value != BMP280_CHIP_ID);
 252              		.loc 1 194 0
 253 0024 582C     		cmp	r4, #88
 254 0026 EDD1     		bne	.L11
 195:bmp280.c      **** }
 255              		.loc 1 195 0
 256 0028 10BD     		pop	{r4, pc}
 257              		.cfi_endproc
 258              	.LFE4:
 259              		.size	wait_bmp280_connecting, .-wait_bmp280_connecting
ARM GAS  C:\Users\filip\AppData\Local\Temp\ccyO0jjj.s 			page 9


 260 002a 00BF     		.section	.text.get_bmp280_chip_id,"ax",%progbits
 261              		.align	2
 262              		.global	get_bmp280_chip_id
 263              		.thumb
 264              		.thumb_func
 265              		.type	get_bmp280_chip_id, %function
 266              	get_bmp280_chip_id:
 267              	.LFB5:
 196:bmp280.c      **** 
 197:bmp280.c      **** /*
 198:bmp280.c      **** ***************************************************************************************************
 199:bmp280.c      **** *                                       init_spi()
 200:bmp280.c      **** *
 201:bmp280.c      **** * Description : This function returns the first received byte from spi after sending the register i
 202:bmp280.c      **** *               address.
 203:bmp280.c      **** *
 204:bmp280.c      **** * Argument(s) : none.
 205:bmp280.c      **** *
 206:bmp280.c      **** * Return(s)   : First receiver byte from spi.
 207:bmp280.c      **** *
 208:bmp280.c      **** * Caller(s)   : Application.
 209:bmp280.c      **** *
 210:bmp280.c      **** * Note(s)     : Not re-entrant.
 211:bmp280.c      **** ***************************************************************************************************
 212:bmp280.c      **** */
 213:bmp280.c      **** 
 214:bmp280.c      **** CPU_INT08U get_bmp280_chip_id(CPU_VOID)
 215:bmp280.c      **** {
 268              		.loc 1 215 0
 269              		.cfi_startproc
 270              		@ args = 0, pretend = 0, frame = 0
 271              		@ frame_needed = 0, uses_anonymous_args = 0
 272 0000 08B5     		push	{r3, lr}
 273              		.cfi_def_cfa_offset 8
 274              		.cfi_offset 3, -8
 275              		.cfi_offset 14, -4
 216:bmp280.c      ****   return bmp280_spi_read(BMP280_REG_ID);
 276              		.loc 1 216 0
 277 0002 D020     		movs	r0, #208
 278 0004 FFF7FEFF 		bl	bmp280_spi_read
 279              	.LVL34:
 217:bmp280.c      **** }
 280              		.loc 1 217 0
 281 0008 08BD     		pop	{r3, pc}
 282              		.cfi_endproc
 283              	.LFE5:
 284              		.size	get_bmp280_chip_id, .-get_bmp280_chip_id
 285 000a 00BF     		.section	.text.read_bmp280_press_temp,"ax",%progbits
 286              		.align	2
 287              		.global	read_bmp280_press_temp
 288              		.thumb
 289              		.thumb_func
 290              		.type	read_bmp280_press_temp, %function
 291              	read_bmp280_press_temp:
 292              	.LFB6:
 218:bmp280.c      **** 
 219:bmp280.c      **** /*
ARM GAS  C:\Users\filip\AppData\Local\Temp\ccyO0jjj.s 			page 10


 220:bmp280.c      **** ***************************************************************************************************
 221:bmp280.c      **** *                                       read_bmp280_press_temp()
 222:bmp280.c      **** *
 223:bmp280.c      **** * Description : This function writes the pressure MSB register address and waits till all measureme
 224:bmp280.c      **** *               values are received. These values are then written to the given reg_values array. T
 225:bmp280.c      **** *               given array should have at least a size of BMP280_PRESS_TEMP_DATA_SIZE.
 226:bmp280.c      **** *
 227:bmp280.c      **** * Argument(s) : reg_values[] ... array of bytes, where received bytes are written to
 228:bmp280.c      **** *
 229:bmp280.c      **** * Return(s)   : none.
 230:bmp280.c      **** *
 231:bmp280.c      **** * Caller(s)   : Application.
 232:bmp280.c      **** *
 233:bmp280.c      **** * Note(s)     : Not re-entrant.
 234:bmp280.c      **** ***************************************************************************************************
 235:bmp280.c      **** */
 236:bmp280.c      **** 
 237:bmp280.c      **** CPU_VOID read_bmp280_press_temp(CPU_INT08U reg_values[])
 238:bmp280.c      **** {
 293              		.loc 1 238 0
 294              		.cfi_startproc
 295              		@ args = 0, pretend = 0, frame = 0
 296              		@ frame_needed = 0, uses_anonymous_args = 0
 297              	.LVL35:
 298 0000 08B5     		push	{r3, lr}
 299              		.cfi_def_cfa_offset 8
 300              		.cfi_offset 3, -8
 301              		.cfi_offset 14, -4
 239:bmp280.c      ****   bmp280_spi_read_multiple(BMP280_REG_PRESS_MSB, reg_values, BMP280_PRESS_TEMP_DATA_SIZE);
 302              		.loc 1 239 0
 303 0002 0622     		movs	r2, #6
 304 0004 0146     		mov	r1, r0
 305 0006 F720     		movs	r0, #247
 306              	.LVL36:
 307 0008 FFF7FEFF 		bl	bmp280_spi_read_multiple
 308              	.LVL37:
 309 000c 08BD     		pop	{r3, pc}
 310              		.cfi_endproc
 311              	.LFE6:
 312              		.size	read_bmp280_press_temp, .-read_bmp280_press_temp
 313 000e 00BF     		.section	.text.read_bmp280_calib,"ax",%progbits
 314              		.align	2
 315              		.global	read_bmp280_calib
 316              		.thumb
 317              		.thumb_func
 318              		.type	read_bmp280_calib, %function
 319              	read_bmp280_calib:
 320              	.LFB7:
 240:bmp280.c      **** }
 241:bmp280.c      **** 
 242:bmp280.c      **** /*
 243:bmp280.c      **** ***************************************************************************************************
 244:bmp280.c      **** *                                       read_bmp280_calib()
 245:bmp280.c      **** *
 246:bmp280.c      **** * Description : This function writes the calibrate LSB register address and waits till all calibrat
 247:bmp280.c      **** *               values are received. These values are then written to the given reg_values array. T
 248:bmp280.c      **** *               given array should have at least a size of BMP280_CALIB_DATA_SIZE.
ARM GAS  C:\Users\filip\AppData\Local\Temp\ccyO0jjj.s 			page 11


 249:bmp280.c      **** *
 250:bmp280.c      **** * Argument(s) : reg_values[] ... array of bytes, where received bytes are written to
 251:bmp280.c      **** *
 252:bmp280.c      **** * Return(s)   : none.
 253:bmp280.c      **** *
 254:bmp280.c      **** * Caller(s)   : Application.
 255:bmp280.c      **** *
 256:bmp280.c      **** * Note(s)     : Not re-entrant.
 257:bmp280.c      **** ***************************************************************************************************
 258:bmp280.c      **** */
 259:bmp280.c      **** 
 260:bmp280.c      **** CPU_VOID read_bmp280_calib(CPU_INT08U reg_values[])
 261:bmp280.c      **** {
 321              		.loc 1 261 0
 322              		.cfi_startproc
 323              		@ args = 0, pretend = 0, frame = 0
 324              		@ frame_needed = 0, uses_anonymous_args = 0
 325              	.LVL38:
 326 0000 08B5     		push	{r3, lr}
 327              		.cfi_def_cfa_offset 8
 328              		.cfi_offset 3, -8
 329              		.cfi_offset 14, -4
 262:bmp280.c      ****   bmp280_spi_read_multiple(BMP280_REG_CALIB_LSB, reg_values, BMP280_CALIB_DATA_SIZE);
 330              		.loc 1 262 0
 331 0002 1822     		movs	r2, #24
 332 0004 0146     		mov	r1, r0
 333 0006 8820     		movs	r0, #136
 334              	.LVL39:
 335 0008 FFF7FEFF 		bl	bmp280_spi_read_multiple
 336              	.LVL40:
 337 000c 08BD     		pop	{r3, pc}
 338              		.cfi_endproc
 339              	.LFE7:
 340              		.size	read_bmp280_calib, .-read_bmp280_calib
 341 000e 00BF     		.section	.text.get_bmp280_press_temp,"ax",%progbits
 342              		.align	2
 343              		.global	get_bmp280_press_temp
 344              		.thumb
 345              		.thumb_func
 346              		.type	get_bmp280_press_temp, %function
 347              	get_bmp280_press_temp:
 348              	.LFB8:
 263:bmp280.c      **** }
 264:bmp280.c      **** 
 265:bmp280.c      **** /*
 266:bmp280.c      **** ***************************************************************************************************
 267:bmp280.c      **** *                                     get_bmp280_press_temp()
 268:bmp280.c      **** *
 269:bmp280.c      **** * Description : Reads sensor and calibration data and compute the calibrated sensor data.
 270:bmp280.c      **** *               The temperature is in DegC, resolution is 0.01 DegC, so an output "5123"
 271:bmp280.c      **** *               equal 51.23 DegC. 
 272:bmp280.c      **** *               The pressure is in Pa, so an output "100838" equals 100838 Pa.
 273:bmp280.c      **** *
 274:bmp280.c      **** * Argument(s) : none.
 275:bmp280.c      **** *
 276:bmp280.c      **** * Return(s)   : calibrated temperature and pressure.
 277:bmp280.c      **** *
ARM GAS  C:\Users\filip\AppData\Local\Temp\ccyO0jjj.s 			page 12


 278:bmp280.c      **** * Note(s)     : none
 279:bmp280.c      **** ***************************************************************************************************
 280:bmp280.c      **** */
 281:bmp280.c      **** 
 282:bmp280.c      **** Bmp280_press_temp get_bmp280_press_temp()
 283:bmp280.c      **** {
 349              		.loc 1 283 0
 350              		.cfi_startproc
 351              		@ args = 0, pretend = 0, frame = 32
 352              		@ frame_needed = 0, uses_anonymous_args = 0
 353              	.LVL41:
 354 0000 2DE9F04F 		push	{r4, r5, r6, r7, r8, r9, r10, fp, lr}
 355              		.cfi_def_cfa_offset 36
 356              		.cfi_offset 4, -36
 357              		.cfi_offset 5, -32
 358              		.cfi_offset 6, -28
 359              		.cfi_offset 7, -24
 360              		.cfi_offset 8, -20
 361              		.cfi_offset 9, -16
 362              		.cfi_offset 10, -12
 363              		.cfi_offset 11, -8
 364              		.cfi_offset 14, -4
 365 0004 89B0     		sub	sp, sp, #36
 366              		.cfi_def_cfa_offset 72
 367 0006 0446     		mov	r4, r0
 284:bmp280.c      ****   CPU_INT08U  reg_press_temp[BMP280_PRESS_TEMP_DATA_SIZE] = {0};
 368              		.loc 1 284 0
 369 0008 0023     		movs	r3, #0
 370 000a 0693     		str	r3, [sp, #24]
 371 000c ADF81C30 		strh	r3, [sp, #28]	@ movhi
 285:bmp280.c      ****   CPU_INT08U  reg_calib[BMP280_CALIB_DATA_SIZE] = {0};
 372              		.loc 1 285 0
 373 0010 0093     		str	r3, [sp]
 374 0012 0193     		str	r3, [sp, #4]
 375 0014 0293     		str	r3, [sp, #8]
 376 0016 0393     		str	r3, [sp, #12]
 377 0018 0493     		str	r3, [sp, #16]
 378 001a 0593     		str	r3, [sp, #20]
 286:bmp280.c      ****   
 287:bmp280.c      ****   CPU_INT32U  adc_T;
 288:bmp280.c      ****   CPU_INT16U  dig_T1;
 289:bmp280.c      ****   CPU_INT16S  dig_T2;
 290:bmp280.c      ****   CPU_INT16S  dig_T3;
 291:bmp280.c      ****   CPU_INT32S  var1,var2, t_fine;
 292:bmp280.c      ****   
 293:bmp280.c      ****   CPU_INT32U  adc_P;
 294:bmp280.c      ****   CPU_INT16U  dig_P1;
 295:bmp280.c      ****   CPU_INT16S  dig_P2;
 296:bmp280.c      ****   CPU_INT16S  dig_P3;
 297:bmp280.c      ****   CPU_INT16S  dig_P4;
 298:bmp280.c      ****   CPU_INT16S  dig_P5;
 299:bmp280.c      ****   CPU_INT16S  dig_P6;
 300:bmp280.c      ****   CPU_INT16S  dig_P7;
 301:bmp280.c      ****   CPU_INT16S  dig_P8;
 302:bmp280.c      ****   CPU_INT16S  dig_P9;
 303:bmp280.c      ****   
 304:bmp280.c      ****   Bmp280_press_temp return_data;
ARM GAS  C:\Users\filip\AppData\Local\Temp\ccyO0jjj.s 			page 13


 305:bmp280.c      ****   
 306:bmp280.c      ****   read_bmp280_press_temp(reg_press_temp);
 379              		.loc 1 306 0
 380 001c 06A8     		add	r0, sp, #24
 381              	.LVL42:
 382 001e FFF7FEFF 		bl	read_bmp280_press_temp
 383              	.LVL43:
 307:bmp280.c      ****   read_bmp280_calib(reg_calib);
 384              		.loc 1 307 0
 385 0022 6846     		mov	r0, sp
 386 0024 FFF7FEFF 		bl	read_bmp280_calib
 387              	.LVL44:
 308:bmp280.c      ****   
 309:bmp280.c      ****   /* Use calibration data to compute temperature */
 310:bmp280.c      ****   adc_T = ((CPU_INT32S)reg_press_temp[3] << 12) 
 388              		.loc 1 310 0
 389 0028 9DF81B50 		ldrb	r5, [sp, #27]	@ zero_extendqisi2
 311:bmp280.c      ****         | ((CPU_INT32S)reg_press_temp[4] << 4) 
 390              		.loc 1 311 0
 391 002c 9DF81C10 		ldrb	r1, [sp, #28]	@ zero_extendqisi2
 392 0030 0901     		lsls	r1, r1, #4
 393 0032 41EA0531 		orr	r1, r1, r5, lsl #12
 312:bmp280.c      ****         | ((CPU_INT32S)reg_press_temp[5] >> 4);
 394              		.loc 1 312 0
 395 0036 9DF81D50 		ldrb	r5, [sp, #29]	@ zero_extendqisi2
 396 003a 41EA1515 		orr	r5, r1, r5, lsr #4
 397              	.LVL45:
 313:bmp280.c      ****   dig_T1 = reg_calib[0] + (reg_calib[1]<<8);
 398              		.loc 1 313 0
 399 003e 9DF80030 		ldrb	r3, [sp]	@ zero_extendqisi2
 400 0042 9DF80100 		ldrb	r0, [sp, #1]	@ zero_extendqisi2
 401 0046 03EB0020 		add	r0, r3, r0, lsl #8
 402 004a 80B2     		uxth	r0, r0
 403              	.LVL46:
 314:bmp280.c      ****   dig_T2 = reg_calib[2] + (reg_calib[3]<<8);
 404              		.loc 1 314 0
 405 004c 9DF80230 		ldrb	r3, [sp, #2]	@ zero_extendqisi2
 406 0050 9DF80320 		ldrb	r2, [sp, #3]	@ zero_extendqisi2
 407 0054 03EB0222 		add	r2, r3, r2, lsl #8
 408 0058 12B2     		sxth	r2, r2
 409              	.LVL47:
 315:bmp280.c      ****   dig_T3 = reg_calib[4] + (reg_calib[5]<<8);
 410              		.loc 1 315 0
 411 005a 9DF80410 		ldrb	r1, [sp, #4]	@ zero_extendqisi2
 412 005e 9DF80560 		ldrb	r6, [sp, #5]	@ zero_extendqisi2
 413 0062 01EB0621 		add	r1, r1, r6, lsl #8
 414 0066 0EB2     		sxth	r6, r1
 415              	.LVL48:
 316:bmp280.c      ****   
 317:bmp280.c      ****   var1 = ((((adc_T / 8) - ((CPU_INT32S) dig_T1 * 2))) * ((CPU_INT32S) dig_T2)) / 2048;
 416              		.loc 1 317 0
 417 0068 4300     		lsls	r3, r0, #1
 418 006a C3EBD503 		rsb	r3, r3, r5, lsr #3
 419 006e 03FB02F2 		mul	r2, r3, r2
 420              	.LVL49:
 318:bmp280.c      ****   var2 = (((((adc_T / 16) - ((CPU_INT32S) dig_T1)) * ((adc_T / 16) - ((CPU_INT32S) dig_T1))) / 4096
 421              		.loc 1 318 0
ARM GAS  C:\Users\filip\AppData\Local\Temp\ccyO0jjj.s 			page 14


 422 0072 C0EB1511 		rsb	r1, r0, r5, lsr #4
 423 0076 01FB01F1 		mul	r1, r1, r1
 424 007a 090B     		lsrs	r1, r1, #12
 425 007c 01FB06F1 		mul	r1, r1, r6
 426 0080 890B     		lsrs	r1, r1, #14
 427              	.LVL50:
 319:bmp280.c      **** 
 320:bmp280.c      ****   t_fine = var1 + var2;
 428              		.loc 1 320 0
 429 0082 01EBD222 		add	r2, r1, r2, lsr #11
 430              	.LVL51:
 321:bmp280.c      ****   return_data.temp = (t_fine * 5 + 128) / 256;
 431              		.loc 1 321 0
 432 0086 02EB8203 		add	r3, r2, r2, lsl #2
 433              	.LVL52:
 434 008a 8033     		adds	r3, r3, #128
 435 008c 00D5     		bpl	.L20
 436 008e FF33     		adds	r3, r3, #255
 437              	.L20:
 438 0090 1B12     		asrs	r3, r3, #8
 439 0092 2360     		str	r3, [r4]
 322:bmp280.c      ****   
 323:bmp280.c      ****   /* Use calibration data to compute press */
 324:bmp280.c      ****   adc_P = ((CPU_INT32U)reg_press_temp[0] << 12) 
 440              		.loc 1 324 0
 441 0094 9DF81830 		ldrb	r3, [sp, #24]	@ zero_extendqisi2
 325:bmp280.c      ****         | ((CPU_INT32U)reg_press_temp[1] << 4) 
 442              		.loc 1 325 0
 443 0098 9DF81900 		ldrb	r0, [sp, #25]	@ zero_extendqisi2
 444              	.LVL53:
 445 009c 0001     		lsls	r0, r0, #4
 446 009e 40EA0333 		orr	r3, r0, r3, lsl #12
 326:bmp280.c      ****         | ((CPU_INT32U)reg_press_temp[2] >> 4);
 447              		.loc 1 326 0
 448 00a2 9DF81A00 		ldrb	r0, [sp, #26]	@ zero_extendqisi2
 324:bmp280.c      ****         | ((CPU_INT32U)reg_press_temp[1] << 4) 
 449              		.loc 1 324 0
 450 00a6 43EA1010 		orr	r0, r3, r0, lsr #4
 451              	.LVL54:
 327:bmp280.c      ****   dig_P1 =  reg_calib[6] + (reg_calib[7] << 8);
 452              		.loc 1 327 0
 453 00aa 9DF80630 		ldrb	r3, [sp, #6]	@ zero_extendqisi2
 454 00ae 9DF80710 		ldrb	r1, [sp, #7]	@ zero_extendqisi2
 455              	.LVL55:
 456 00b2 03EB0121 		add	r1, r3, r1, lsl #8
 457 00b6 89B2     		uxth	r1, r1
 458              	.LVL56:
 328:bmp280.c      ****   dig_P2 =  reg_calib[8] + (reg_calib[9] << 8);
 459              		.loc 1 328 0
 460 00b8 9DF80830 		ldrb	r3, [sp, #8]	@ zero_extendqisi2
 461 00bc 9DF809E0 		ldrb	lr, [sp, #9]	@ zero_extendqisi2
 462 00c0 03EB0E23 		add	r3, r3, lr, lsl #8
 463 00c4 0FFA83FE 		sxth	lr, r3
 464              	.LVL57:
 329:bmp280.c      ****   dig_P3 = reg_calib[10] + (reg_calib[11] << 8);
 465              		.loc 1 329 0
 466 00c8 9DF80A30 		ldrb	r3, [sp, #10]	@ zero_extendqisi2
ARM GAS  C:\Users\filip\AppData\Local\Temp\ccyO0jjj.s 			page 15


 467 00cc 9DF80BC0 		ldrb	ip, [sp, #11]	@ zero_extendqisi2
 468 00d0 03EB0C2C 		add	ip, r3, ip, lsl #8
 469 00d4 0FFA8CF9 		sxth	r9, ip
 470              	.LVL58:
 330:bmp280.c      ****   dig_P4 = reg_calib[12] + (reg_calib[13] << 8);
 471              		.loc 1 330 0
 472 00d8 9DF80C30 		ldrb	r3, [sp, #12]	@ zero_extendqisi2
 473 00dc 9DF80DA0 		ldrb	r10, [sp, #13]	@ zero_extendqisi2
 474 00e0 03EB0A2A 		add	r10, r3, r10, lsl #8
 475 00e4 0FFA8AFA 		sxth	r10, r10
 476              	.LVL59:
 331:bmp280.c      ****   dig_P5 = reg_calib[14] + (reg_calib[15] << 8);
 477              		.loc 1 331 0
 478 00e8 9DF80E30 		ldrb	r3, [sp, #14]	@ zero_extendqisi2
 479 00ec 9DF80F80 		ldrb	r8, [sp, #15]	@ zero_extendqisi2
 480 00f0 03EB0828 		add	r8, r3, r8, lsl #8
 481 00f4 0FFA88F8 		sxth	r8, r8
 482              	.LVL60:
 332:bmp280.c      ****   dig_P6 = reg_calib[16] + (reg_calib[17] << 8);
 483              		.loc 1 332 0
 484 00f8 9DF81030 		ldrb	r3, [sp, #16]	@ zero_extendqisi2
 485 00fc 9DF811B0 		ldrb	fp, [sp, #17]	@ zero_extendqisi2
 486 0100 03EB0B2B 		add	fp, r3, fp, lsl #8
 487 0104 0FFA8BFB 		sxth	fp, fp
 488              	.LVL61:
 333:bmp280.c      ****   dig_P7 = reg_calib[18] + (reg_calib[19] << 8);
 489              		.loc 1 333 0
 490 0108 9DF81230 		ldrb	r3, [sp, #18]	@ zero_extendqisi2
 491 010c 9DF81360 		ldrb	r6, [sp, #19]	@ zero_extendqisi2
 492              	.LVL62:
 493 0110 03EB0626 		add	r6, r3, r6, lsl #8
 494 0114 36B2     		sxth	r6, r6
 495              	.LVL63:
 334:bmp280.c      ****   dig_P8 = reg_calib[20] + (reg_calib[21] << 8);
 496              		.loc 1 334 0
 497 0116 9DF81430 		ldrb	r3, [sp, #20]	@ zero_extendqisi2
 498 011a 9DF81550 		ldrb	r5, [sp, #21]	@ zero_extendqisi2
 499              	.LVL64:
 500 011e 03EB0525 		add	r5, r3, r5, lsl #8
 501 0122 2DB2     		sxth	r5, r5
 502              	.LVL65:
 335:bmp280.c      ****   dig_P9 = reg_calib[22] + (reg_calib[23] << 8);
 503              		.loc 1 335 0
 504 0124 9DF81630 		ldrb	r3, [sp, #22]	@ zero_extendqisi2
 505 0128 9DF81770 		ldrb	r7, [sp, #23]	@ zero_extendqisi2
 506 012c 03EB0727 		add	r7, r3, r7, lsl #8
 507 0130 3FB2     		sxth	r7, r7
 508              	.LVL66:
 336:bmp280.c      ****   
 337:bmp280.c      ****   var1 = (((CPU_INT32S) t_fine) / 2) - (CPU_INT32S) 64000;
 509              		.loc 1 337 0
 510 0132 02EBD273 		add	r3, r2, r2, lsr #31
 511 0136 5B10     		asrs	r3, r3, #1
 512 0138 A3F57A43 		sub	r3, r3, #64000
 513              	.LVL67:
 338:bmp280.c      ****   var2 = (((var1 / 4) * (var1 / 4)) / 2048) * ((CPU_INT32S) dig_P6);
 514              		.loc 1 338 0
ARM GAS  C:\Users\filip\AppData\Local\Temp\ccyO0jjj.s 			page 16


 515 013c 9C46     		mov	ip, r3
 516 013e 002B     		cmp	r3, #0
 517 0140 01DA     		bge	.L21
 518 0142 03F1030C 		add	ip, r3, #3
 519              	.L21:
 520 0146 4FEAAC0C 		asr	ip, ip, #2
 521 014a 0CFB0CFC 		mul	ip, ip, ip
 522 014e 6246     		mov	r2, ip
 523              	.LVL68:
 524 0150 BCF1000F 		cmp	ip, #0
 525 0154 01DA     		bge	.L22
 526 0156 0CF2FF72 		addw	r2, ip, #2047
 527              	.L22:
 528 015a D212     		asrs	r2, r2, #11
 529              	.LVL69:
 339:bmp280.c      ****   var2 = var2 + ((var1 * ((CPU_INT32S) dig_P5)) * 2);
 530              		.loc 1 339 0
 531 015c 08FB03F8 		mul	r8, r8, r3
 532              	.LVL70:
 533 0160 4FEA4808 		lsl	r8, r8, #1
 534 0164 0BFB0282 		mla	r2, fp, r2, r8
 535              	.LVL71:
 340:bmp280.c      ****   var2 = (var2 / 4) + (((CPU_INT32S) dig_P4) * 65536);
 536              		.loc 1 340 0
 537 0168 002A     		cmp	r2, #0
 538 016a 00DA     		bge	.L23
 539 016c 0332     		adds	r2, r2, #3
 540              	.L23:
 541 016e 4FEA0A4A 		lsl	r10, r10, #16
 542              	.LVL72:
 543 0172 0AEBA202 		add	r2, r10, r2, asr #2
 544              	.LVL73:
 341:bmp280.c      ****   var1 = (((dig_P3 * (((var1 / 4) * (var1 / 4)) / 8192)) / 8) + ((((CPU_INT32S) dig_P2) * var1) / 2
 545              		.loc 1 341 0
 546 0176 E046     		mov	r8, ip
 547 0178 BCF1000F 		cmp	ip, #0
 548 017c 03DA     		bge	.L24
 549 017e 0CF5FF58 		add	r8, ip, #8160
 550 0182 08F11F08 		add	r8, r8, #31
 551              	.L24:
 552 0186 4FEA683C 		asr	ip, r8, #13
 553 018a 0CFB09FC 		mul	ip, ip, r9
 554 018e BCF1000F 		cmp	ip, #0
 555 0192 01DA     		bge	.L25
 556 0194 0CF1070C 		add	ip, ip, #7
 557              	.L25:
 558 0198 0EFB03F3 		mul	r3, lr, r3
 559              	.LVL74:
 560 019c 03EBD373 		add	r3, r3, r3, lsr #31
 561 01a0 5B10     		asrs	r3, r3, #1
 562 01a2 13EBEC03 		adds	r3, r3, ip, asr #3
 563 01a6 03D5     		bpl	.L26
 564 01a8 03F57F33 		add	r3, r3, #261120
 565 01ac 03F2FF33 		addw	r3, r3, #1023
 566              	.L26:
 567 01b0 9B14     		asrs	r3, r3, #18
 568              	.LVL75:
ARM GAS  C:\Users\filip\AppData\Local\Temp\ccyO0jjj.s 			page 17


 342:bmp280.c      ****   var1 = ((((32768 + var1)) * ((CPU_INT32S) dig_P1)) / 32768);
 569              		.loc 1 342 0
 570 01b2 03F50043 		add	r3, r3, #32768
 571              	.LVL76:
 572 01b6 01FB03F3 		mul	r3, r1, r3
 573              	.LVL77:
 574 01ba 002B     		cmp	r3, #0
 575 01bc 02DA     		bge	.L27
 576 01be 03F5FF43 		add	r3, r3, #32640
 577 01c2 7F33     		adds	r3, r3, #127
 578              	.L27:
 579              	.LVL78:
 343:bmp280.c      **** 
 344:bmp280.c      ****   /* Avoid exception caused by division with zero */
 345:bmp280.c      ****   if (var1 != 0)
 580              		.loc 1 345 0
 581 01c4 DB13     		asrs	r3, r3, #15
 582              	.LVL79:
 583 01c6 37D0     		beq	.L19
 346:bmp280.c      ****   {
 347:bmp280.c      ****       return_data.press = (((CPU_INT32U)(((CPU_INT32S)1048576) - adc_P) - (var2 / 4096))) * 3125;
 584              		.loc 1 347 0
 585 01c8 1146     		mov	r1, r2
 586              	.LVL80:
 587 01ca 002A     		cmp	r2, #0
 588 01cc 01DA     		bge	.L29
 589              	.LVL81:
 590 01ce 02F6FF71 		addw	r1, r2, #4095
 591              	.LVL82:
 592              	.L29:
 593 01d2 4042     		negs	r0, r0
 594              	.LVL83:
 595 01d4 A0EB2130 		sub	r0, r0, r1, asr #12
 596              	.LVL84:
 597 01d8 40F63542 		movw	r2, #3125
 598              	.LVL85:
 599 01dc 02FB00F0 		mul	r0, r2, r0
 600 01e0 00F14340 		add	r0, r0, #-1023410176
 601 01e4 00F5A000 		add	r0, r0, #5242880
 602 01e8 6060     		str	r0, [r4, #4]
 348:bmp280.c      ****       
 349:bmp280.c      ****       /* Check for overflows against UINT32_MAX/2; if pressure is left-shifted by 1 */
 350:bmp280.c      ****       if (return_data.press < 0x80000000)
 603              		.loc 1 350 0
 604 01ea 0028     		cmp	r0, #0
 605 01ec 04DB     		blt	.L30
 351:bmp280.c      ****       {
 352:bmp280.c      ****           return_data.press = (return_data.press * 2) / ((CPU_INT32U) var1);
 606              		.loc 1 352 0
 607 01ee 4000     		lsls	r0, r0, #1
 608 01f0 B0FBF3F0 		udiv	r0, r0, r3
 609 01f4 6060     		str	r0, [r4, #4]
 610 01f6 03E0     		b	.L31
 611              	.L30:
 353:bmp280.c      ****       }
 354:bmp280.c      ****       else
 355:bmp280.c      ****       {
ARM GAS  C:\Users\filip\AppData\Local\Temp\ccyO0jjj.s 			page 18


 356:bmp280.c      ****           return_data.press = (return_data.press / (CPU_INT32U) var1) * 2;
 612              		.loc 1 356 0
 613 01f8 B0FBF3F0 		udiv	r0, r0, r3
 614 01fc 4000     		lsls	r0, r0, #1
 615 01fe 6060     		str	r0, [r4, #4]
 616              	.L31:
 357:bmp280.c      ****       }
 358:bmp280.c      ****       var1 = (((CPU_INT32S) dig_P9) * ((CPU_INT32S) (((return_data.press / 8) * (return_data.press 
 617              		.loc 1 358 0
 618 0200 6268     		ldr	r2, [r4, #4]
 619 0202 D308     		lsrs	r3, r2, #3
 620              	.LVL86:
 621 0204 03FB03F3 		mul	r3, r3, r3
 622 0208 5B0B     		lsrs	r3, r3, #13
 623 020a 03FB07F7 		mul	r7, r3, r7
 624              	.LVL87:
 625 020e 002F     		cmp	r7, #0
 626 0210 01DA     		bge	.L32
 627 0212 07F6FF77 		addw	r7, r7, #4095
 628              	.L32:
 629 0216 3F13     		asrs	r7, r7, #12
 630              	.LVL88:
 359:bmp280.c      ****       var2 = (((CPU_INT32S) (return_data.press / 4)) * ((CPU_INT32S) dig_P8)) / 8192;
 631              		.loc 1 359 0
 632 0218 9308     		lsrs	r3, r2, #2
 633 021a 05FB03F5 		mul	r5, r5, r3
 634              	.LVL89:
 635 021e 002D     		cmp	r5, #0
 636 0220 02DA     		bge	.L33
 637 0222 05F5FF55 		add	r5, r5, #8160
 638 0226 1F35     		adds	r5, r5, #31
 639              	.L33:
 640              	.LVL90:
 360:bmp280.c      ****       return_data.press = (CPU_INT32U) ((CPU_INT32S) return_data.press + ((var1 + var2 + dig_P7) / 
 641              		.loc 1 360 0
 642 0228 07EB6537 		add	r7, r7, r5, asr #13
 643              	.LVL91:
 644 022c F719     		adds	r7, r6, r7
 645 022e 00D5     		bpl	.L34
 646 0230 0F37     		adds	r7, r7, #15
 647              	.L34:
 648 0232 02EB2717 		add	r7, r2, r7, asr #4
 649 0236 6760     		str	r7, [r4, #4]
 650              	.LVL92:
 651              	.L19:
 361:bmp280.c      ****   }
 362:bmp280.c      ****   
 363:bmp280.c      ****   return return_data;
 364:bmp280.c      **** }
 652              		.loc 1 364 0
 653 0238 2046     		mov	r0, r4
 654 023a 09B0     		add	sp, sp, #36
 655              		.cfi_def_cfa_offset 36
 656              	.LVL93:
 657              		@ sp needed
 658 023c BDE8F08F 		pop	{r4, r5, r6, r7, r8, r9, r10, fp, pc}
 659              		.cfi_endproc
ARM GAS  C:\Users\filip\AppData\Local\Temp\ccyO0jjj.s 			page 19


 660              	.LFE8:
 661              		.size	get_bmp280_press_temp, .-get_bmp280_press_temp
 662              		.text
 663              	.Letext0:
 664              		.file 2 ".\\uC-CPU\\ARM-Cortex-M3\\GNU/cpu.h"
 665              		.file 3 "./bmp280.h"
 666              		.file 4 "./bsp_spi.h"
 667              		.file 5 "Generated_Source\\PSoC5/SPIM_1.h"