ARM GAS  C:\Users\filip\AppData\Local\Temp\cc658DaE.s 			page 1


   1              		.syntax unified
   2              		.cpu cortex-m3
   3              		.fpu softvfp
   4              		.eabi_attribute 20, 1
   5              		.eabi_attribute 21, 1
   6              		.eabi_attribute 23, 3
   7              		.eabi_attribute 24, 1
   8              		.eabi_attribute 25, 1
   9              		.eabi_attribute 26, 1
  10              		.eabi_attribute 30, 1
  11              		.eabi_attribute 34, 1
  12              		.eabi_attribute 18, 4
  13              		.thumb
  14              		.syntax unified
  15              		.file	"app.c"
  16              		.text
  17              	.Ltext0:
  18              		.cfi_sections	.debug_frame
  19              		.section	.text.App_TaskCreate,"ax",%progbits
  20              		.align	2
  21              		.thumb
  22              		.thumb_func
  23              		.type	App_TaskCreate, %function
  24              	App_TaskCreate:
  25              	.LFB3:
  26              		.file 1 "APP\\app.c"
   1:APP/app.c     **** /*
   2:APP/app.c     **** ***************************************************************************************************
   3:APP/app.c     **** *
   4:APP/app.c     **** *                                       MES1 Embedded Software (RTOS)
   5:APP/app.c     **** *
   6:APP/app.c     **** * Filename      : app.c
   7:APP/app.c     **** * Version       : V1.3
   8:APP/app.c     **** * Programmer(s) : Filip Wagner
   9:APP/app.c     ****                   
  10:APP/app.c     **** ***************************************************************************************************
  11:APP/app.c     **** */
  12:APP/app.c     **** 
  13:APP/app.c     **** /*
  14:APP/app.c     **** ***************************************************************************************************
  15:APP/app.c     **** *                                             INCLUDE FILES
  16:APP/app.c     **** ***************************************************************************************************
  17:APP/app.c     **** */
  18:APP/app.c     **** 
  19:APP/app.c     **** #include <includes.h>
  20:APP/app.c     **** #include <cyapicallbacks.h>
  21:APP/app.c     **** 
  22:APP/app.c     **** /*
  23:APP/app.c     **** ***************************************************************************************************
  24:APP/app.c     **** *                                             LOCAL DEFINES
  25:APP/app.c     **** ***************************************************************************************************
  26:APP/app.c     **** */
  27:APP/app.c     **** 
  28:APP/app.c     **** #define  APP_USER_IF_SIGN_ON                        0u
  29:APP/app.c     **** #define  APP_USER_IF_VER_TICK_RATE                  1u
  30:APP/app.c     **** #define  APP_USER_IF_CPU                            2u
  31:APP/app.c     **** #define  APP_USER_IF_CTXSW                          3u
ARM GAS  C:\Users\filip\AppData\Local\Temp\cc658DaE.s 			page 2


  32:APP/app.c     **** #define  APP_USER_IF_STATE_MAX                      4u
  33:APP/app.c     **** 
  34:APP/app.c     **** /*
  35:APP/app.c     **** ***************************************************************************************************
  36:APP/app.c     **** *                                            LOCAL VARIABLES
  37:APP/app.c     **** ***************************************************************************************************
  38:APP/app.c     **** */
  39:APP/app.c     **** 
  40:APP/app.c     **** static  OS_TCB   App_TaskStartTCB;
  41:APP/app.c     **** static  CPU_STK  App_TaskStartStk[APP_CFG_TASK_START_STK_SIZE];
  42:APP/app.c     **** 
  43:APP/app.c     **** static  OS_TCB   App_TaskCMD_TCB;
  44:APP/app.c     **** static  CPU_STK  App_TaskCMDStk[APP_CFG_TASK_CMD_STK_SIZE];
  45:APP/app.c     **** 
  46:APP/app.c     **** static  OS_TCB   App_TaskSine_TCB;
  47:APP/app.c     **** static  CPU_STK  App_TaskSineStk[APP_CFG_TASK_SINE_STK_SIZE];
  48:APP/app.c     **** 
  49:APP/app.c     **** static  OS_TCB   App_TaskCosine_TCB;
  50:APP/app.c     **** static  CPU_STK  App_TaskCosineStk[APP_CFG_TASK_COSINE_STK_SIZE];
  51:APP/app.c     **** 
  52:APP/app.c     **** 
  53:APP/app.c     **** /*
  54:APP/app.c     **** ***************************************************************************************************
  55:APP/app.c     **** *                                         FUNCTION PROTOTYPES
  56:APP/app.c     **** ***************************************************************************************************
  57:APP/app.c     **** */
  58:APP/app.c     **** 
  59:APP/app.c     **** static  void  App_TaskStart  (void *p_arg);
  60:APP/app.c     **** 
  61:APP/app.c     **** static  void  App_TaskCMD (void *p_arg);
  62:APP/app.c     **** static  void  App_TaskSINE (void *p_arg);
  63:APP/app.c     **** static  void  App_TaskCOSINE (void *p_arg);
  64:APP/app.c     **** 
  65:APP/app.c     **** static  void  App_TaskCreate (void);
  66:APP/app.c     **** 
  67:APP/app.c     **** /*
  68:APP/app.c     **** ***************************************************************************************************
  69:APP/app.c     **** *                                                main()
  70:APP/app.c     **** *
  71:APP/app.c     **** * Description : This is the standard entry point for C code.  It is assumed that your code will cal
  72:APP/app.c     **** *               main() once you have performed all necessary initialization.
  73:APP/app.c     **** *
  74:APP/app.c     **** * Argument(s) : none
  75:APP/app.c     **** *
  76:APP/app.c     **** * Return(s)   : none
  77:APP/app.c     **** *
  78:APP/app.c     **** * Caller(s)   : Startup Code.
  79:APP/app.c     **** *
  80:APP/app.c     **** * Note(s)     : none.
  81:APP/app.c     **** ***************************************************************************************************
  82:APP/app.c     **** */
  83:APP/app.c     **** 
  84:APP/app.c     **** int  main (void)
  85:APP/app.c     **** {
  86:APP/app.c     ****   OS_ERR  os_err;
  87:APP/app.c     **** 
  88:APP/app.c     **** 
ARM GAS  C:\Users\filip\AppData\Local\Temp\cc658DaE.s 			page 3


  89:APP/app.c     ****   BSP_PreInit();                                              /* Perform BSP pre-initialization.   
  90:APP/app.c     **** 
  91:APP/app.c     ****   CPU_Init();                                                 /* Initialize the uC/CPU services    
  92:APP/app.c     **** 
  93:APP/app.c     ****   OSInit(&os_err);                                            /* Init uC/OS-III.                   
  94:APP/app.c     **** 
  95:APP/app.c     ****   OSTaskCreate((OS_TCB      *)&App_TaskStartTCB,              /* Create the start task             
  96:APP/app.c     ****                (CPU_CHAR    *)"Start",
  97:APP/app.c     ****                (OS_TASK_PTR  )App_TaskStart, 
  98:APP/app.c     ****                (void        *)0,
  99:APP/app.c     ****                (OS_PRIO      )APP_CFG_TASK_START_PRIO,
 100:APP/app.c     ****                (CPU_STK     *)&App_TaskStartStk[0],
 101:APP/app.c     ****                (CPU_STK_SIZE )APP_CFG_TASK_START_STK_SIZE_LIMIT,
 102:APP/app.c     ****                (CPU_STK_SIZE )APP_CFG_TASK_START_STK_SIZE,
 103:APP/app.c     ****                (OS_MSG_QTY   )0u,
 104:APP/app.c     ****                (OS_TICK      )0u,
 105:APP/app.c     ****                (void        *)0,
 106:APP/app.c     ****                (OS_OPT       )(OS_OPT_TASK_STK_CHK | OS_OPT_TASK_STK_CLR),
 107:APP/app.c     ****                (OS_ERR      *)&os_err);
 108:APP/app.c     **** 
 109:APP/app.c     ****   OSStart(&os_err);                                            /* Start multitasking (i.e. give con
 110:APP/app.c     **** }
 111:APP/app.c     **** 
 112:APP/app.c     **** 
 113:APP/app.c     **** /*
 114:APP/app.c     **** ***************************************************************************************************
 115:APP/app.c     **** *                                          App_TaskStart()
 116:APP/app.c     **** *
 117:APP/app.c     **** * Description : This is an example of a startup task.  As mentioned in the book's text, you MUST
 118:APP/app.c     **** *               initialize the ticker only once multitasking has started.
 119:APP/app.c     **** *
 120:APP/app.c     **** * Argument(s) : p_arg   is the argument passed to 'App_TaskStart()' by 'OSTaskCreate()'.
 121:APP/app.c     **** *
 122:APP/app.c     **** * Return(s)   : none
 123:APP/app.c     **** *
 124:APP/app.c     **** * Note(s)     : 1) The first line of code is used to prevent a compiler warning because 'p_arg' is 
 125:APP/app.c     **** *                  used.  The compiler should not generate any code for this statement.
 126:APP/app.c     **** ***************************************************************************************************
 127:APP/app.c     **** */
 128:APP/app.c     **** 
 129:APP/app.c     **** static  void  App_TaskStart (void *p_arg)
 130:APP/app.c     **** {
 131:APP/app.c     ****   OS_ERR       err;
 132:APP/app.c     ****      
 133:APP/app.c     ****  (void)p_arg;
 134:APP/app.c     **** 
 135:APP/app.c     ****   BSP_PostInit();                                               /* Perform BSP post-initialization 
 136:APP/app.c     ****   
 137:APP/app.c     ****   BSP_CPU_TickInit();                                           /* Perfrom Tick Initialization     
 138:APP/app.c     **** 
 139:APP/app.c     **** #if (OS_CFG_STAT_TASK_EN > 0u)
 140:APP/app.c     ****   OSStatTaskCPUUsageInit(&err);
 141:APP/app.c     **** #endif    
 142:APP/app.c     **** 
 143:APP/app.c     **** #ifdef CPU_CFG_INT_DIS_MEAS_EN
 144:APP/app.c     ****   CPU_IntDisMeasMaxCurReset();
 145:APP/app.c     **** #endif      
ARM GAS  C:\Users\filip\AppData\Local\Temp\cc658DaE.s 			page 4


 146:APP/app.c     **** 
 147:APP/app.c     ****   App_TaskCreate();                                             /* Create application tasks.       
 148:APP/app.c     ****   
 149:APP/app.c     ****   while (DEF_TRUE) {                                            /* Task body, always written as an 
 150:APP/app.c     ****     OSTimeDlyHMSM(0, 0, 0, 100, 
 151:APP/app.c     ****                   OS_OPT_TIME_HMSM_STRICT, 
 152:APP/app.c     ****                   &err);
 153:APP/app.c     ****   }
 154:APP/app.c     **** }
 155:APP/app.c     **** 
 156:APP/app.c     **** 
 157:APP/app.c     **** /*
 158:APP/app.c     **** ***************************************************************************************************
 159:APP/app.c     **** *                                          App_TaskCreate()
 160:APP/app.c     **** *
 161:APP/app.c     **** * Description : Create application tasks.
 162:APP/app.c     **** *
 163:APP/app.c     **** * Argument(s) : none
 164:APP/app.c     **** *
 165:APP/app.c     **** * Return(s)   : none
 166:APP/app.c     **** *
 167:APP/app.c     **** * Caller(s)   : AppTaskStart()
 168:APP/app.c     **** *
 169:APP/app.c     **** * Note(s)     : none.
 170:APP/app.c     **** ***************************************************************************************************
 171:APP/app.c     **** */
 172:APP/app.c     **** 
 173:APP/app.c     **** static  void  App_TaskCreate (void)
 174:APP/app.c     **** {
  27              		.loc 1 174 0
  28              		.cfi_startproc
  29              		@ args = 0, pretend = 0, frame = 8
  30              		@ frame_needed = 0, uses_anonymous_args = 0
  31 0000 2DE9F047 		push	{r4, r5, r6, r7, r8, r9, r10, lr}
  32              		.cfi_def_cfa_offset 32
  33              		.cfi_offset 4, -32
  34              		.cfi_offset 5, -28
  35              		.cfi_offset 6, -24
  36              		.cfi_offset 7, -20
  37              		.cfi_offset 8, -16
  38              		.cfi_offset 9, -12
  39              		.cfi_offset 10, -8
  40              		.cfi_offset 14, -4
  41 0004 8CB0     		sub	sp, sp, #48
  42              		.cfi_def_cfa_offset 80
 175:APP/app.c     ****   /* declare and define function local variables */
 176:APP/app.c     ****   OS_ERR  os_err;
 177:APP/app.c     ****   
 178:APP/app.c     ****   /* create CMD task */
 179:APP/app.c     ****   OSTaskCreate((OS_TCB      *)&App_TaskCMD_TCB,
  43              		.loc 1 179 0
  44 0006 254D     		ldr	r5, .L3
  45 0008 0DF12E09 		add	r9, sp, #46
  46 000c CDF82090 		str	r9, [sp, #32]
  47 0010 0326     		movs	r6, #3
  48 0012 0796     		str	r6, [sp, #28]
  49 0014 0024     		movs	r4, #0
ARM GAS  C:\Users\filip\AppData\Local\Temp\cc658DaE.s 			page 5


  50 0016 0694     		str	r4, [sp, #24]
  51 0018 0594     		str	r4, [sp, #20]
  52 001a 0494     		str	r4, [sp, #16]
  53 001c 4FF48078 		mov	r8, #256
  54 0020 CDF80C80 		str	r8, [sp, #12]
  55 0024 1927     		movs	r7, #25
  56 0026 0297     		str	r7, [sp, #8]
  57 0028 05F1C003 		add	r3, r5, #192
  58 002c 0193     		str	r3, [sp, #4]
  59 002e 0423     		movs	r3, #4
  60 0030 0093     		str	r3, [sp]
  61 0032 2346     		mov	r3, r4
  62 0034 1A4A     		ldr	r2, .L3+4
  63 0036 1B49     		ldr	r1, .L3+8
  64 0038 2846     		mov	r0, r5
  65 003a FFF7FEFF 		bl	OSTaskCreate
  66              	.LVL0:
 180:APP/app.c     ****                (CPU_CHAR    *)"TaskCMD",
 181:APP/app.c     ****                (OS_TASK_PTR  )App_TaskCMD, 
 182:APP/app.c     ****                (void        *)0,
 183:APP/app.c     ****                (OS_PRIO      )APP_CFG_TASK_CMD_PRIO,
 184:APP/app.c     ****                (CPU_STK     *)&App_TaskCMDStk[0],
 185:APP/app.c     ****                (CPU_STK_SIZE )APP_CFG_TASK_CMD_STK_SIZE_LIMIT,
 186:APP/app.c     ****                (CPU_STK_SIZE )APP_CFG_TASK_CMD_STK_SIZE,
 187:APP/app.c     ****                (OS_MSG_QTY   )0u,
 188:APP/app.c     ****                (OS_TICK      )0u,
 189:APP/app.c     ****                (void        *)0,
 190:APP/app.c     ****                (OS_OPT       )(OS_OPT_TASK_STK_CHK | OS_OPT_TASK_STK_CLR),
 191:APP/app.c     ****                (OS_ERR      *)&os_err);
 192:APP/app.c     ****   /* create SINE task */
 193:APP/app.c     ****   OSTaskCreate((OS_TCB      *)&App_TaskSine_TCB,
  67              		.loc 1 193 0
  68 003e CDF82090 		str	r9, [sp, #32]
  69 0042 0796     		str	r6, [sp, #28]
  70 0044 0694     		str	r4, [sp, #24]
  71 0046 0594     		str	r4, [sp, #20]
  72 0048 4FF00A0A 		mov	r10, #10
  73 004c CDF810A0 		str	r10, [sp, #16]
  74 0050 CDF80C80 		str	r8, [sp, #12]
  75 0054 0297     		str	r7, [sp, #8]
  76 0056 05F5B063 		add	r3, r5, #1408
  77 005a 0193     		str	r3, [sp, #4]
  78 005c 0096     		str	r6, [sp]
  79 005e 2346     		mov	r3, r4
  80 0060 114A     		ldr	r2, .L3+12
  81 0062 1249     		ldr	r1, .L3+16
  82 0064 05F59860 		add	r0, r5, #1216
  83 0068 FFF7FEFF 		bl	OSTaskCreate
  84              	.LVL1:
 194:APP/app.c     ****                (CPU_CHAR    *)"TaskSINE",
 195:APP/app.c     ****                (OS_TASK_PTR  )App_TaskSINE, 
 196:APP/app.c     ****                (void        *)0,
 197:APP/app.c     ****                (OS_PRIO      )APP_CFG_TASK_SINE_PRIO,
 198:APP/app.c     ****                (CPU_STK     *)&App_TaskSineStk[0],
 199:APP/app.c     ****                (CPU_STK_SIZE )APP_CFG_TASK_SINE_STK_SIZE_LIMIT,
 200:APP/app.c     ****                (CPU_STK_SIZE )APP_CFG_TASK_SINE_STK_SIZE,
 201:APP/app.c     ****                (OS_MSG_QTY   )10u,
ARM GAS  C:\Users\filip\AppData\Local\Temp\cc658DaE.s 			page 6


 202:APP/app.c     ****                (OS_TICK      )0u,
 203:APP/app.c     ****                (void        *)0,
 204:APP/app.c     ****                (OS_OPT       )(OS_OPT_TASK_STK_CHK | OS_OPT_TASK_STK_CLR),
 205:APP/app.c     ****                (OS_ERR      *)&os_err);
 206:APP/app.c     ****   /* create COSINE task */
 207:APP/app.c     ****   OSTaskCreate((OS_TCB      *)&App_TaskCosine_TCB,
  85              		.loc 1 207 0
  86 006c CDF82090 		str	r9, [sp, #32]
  87 0070 0796     		str	r6, [sp, #28]
  88 0072 0694     		str	r4, [sp, #24]
  89 0074 0594     		str	r4, [sp, #20]
  90 0076 CDF810A0 		str	r10, [sp, #16]
  91 007a CDF80C80 		str	r8, [sp, #12]
  92 007e 0297     		str	r7, [sp, #8]
  93 0080 05F52463 		add	r3, r5, #2624
  94 0084 0193     		str	r3, [sp, #4]
  95 0086 0096     		str	r6, [sp]
  96 0088 2346     		mov	r3, r4
  97 008a 094A     		ldr	r2, .L3+20
  98 008c 0949     		ldr	r1, .L3+24
  99 008e 05F51860 		add	r0, r5, #2432
 100 0092 FFF7FEFF 		bl	OSTaskCreate
 101              	.LVL2:
 208:APP/app.c     ****                (CPU_CHAR    *)"TaskCOSINE",
 209:APP/app.c     ****                (OS_TASK_PTR  )App_TaskCOSINE, 
 210:APP/app.c     ****                (void        *)0,
 211:APP/app.c     ****                (OS_PRIO      )APP_CFG_TASK_COSINE_PRIO,
 212:APP/app.c     ****                (CPU_STK     *)&App_TaskCosineStk[0],
 213:APP/app.c     ****                (CPU_STK_SIZE )APP_CFG_TASK_COSINE_STK_SIZE_LIMIT,
 214:APP/app.c     ****                (CPU_STK_SIZE )APP_CFG_TASK_COSINE_STK_SIZE,
 215:APP/app.c     ****                (OS_MSG_QTY   )10u,
 216:APP/app.c     ****                (OS_TICK      )0u,
 217:APP/app.c     ****                (void        *)0,
 218:APP/app.c     ****                (OS_OPT       )(OS_OPT_TASK_STK_CHK | OS_OPT_TASK_STK_CLR),
 219:APP/app.c     ****                (OS_ERR      *)&os_err);
 220:APP/app.c     **** }
 102              		.loc 1 220 0
 103 0096 0CB0     		add	sp, sp, #48
 104              		.cfi_def_cfa_offset 32
 105              		@ sp needed
 106 0098 BDE8F087 		pop	{r4, r5, r6, r7, r8, r9, r10, pc}
 107              	.L4:
 108              		.align	2
 109              	.L3:
 110 009c 00000000 		.word	.LANCHOR0
 111 00a0 00000000 		.word	App_TaskCMD
 112 00a4 00000000 		.word	.LC0
 113 00a8 00000000 		.word	App_TaskSINE
 114 00ac 08000000 		.word	.LC1
 115 00b0 00000000 		.word	App_TaskCOSINE
 116 00b4 14000000 		.word	.LC2
 117              		.cfi_endproc
 118              	.LFE3:
 119              		.size	App_TaskCreate, .-App_TaskCreate
 120              		.section	.text.App_TaskStart,"ax",%progbits
 121              		.align	2
 122              		.thumb
ARM GAS  C:\Users\filip\AppData\Local\Temp\cc658DaE.s 			page 7


 123              		.thumb_func
 124              		.type	App_TaskStart, %function
 125              	App_TaskStart:
 126              	.LFB2:
 130:APP/app.c     ****   OS_ERR       err;
 127              		.loc 1 130 0
 128              		.cfi_startproc
 129              		@ args = 0, pretend = 0, frame = 8
 130              		@ frame_needed = 0, uses_anonymous_args = 0
 131              	.LVL3:
 132 0000 00B5     		push	{lr}
 133              		.cfi_def_cfa_offset 4
 134              		.cfi_offset 14, -4
 135 0002 85B0     		sub	sp, sp, #20
 136              		.cfi_def_cfa_offset 24
 135:APP/app.c     ****   
 137              		.loc 1 135 0
 138 0004 FFF7FEFF 		bl	BSP_PostInit
 139              	.LVL4:
 137:APP/app.c     **** 
 140              		.loc 1 137 0
 141 0008 FFF7FEFF 		bl	BSP_CPU_TickInit
 142              	.LVL5:
 140:APP/app.c     **** #endif    
 143              		.loc 1 140 0
 144 000c 0DF10E00 		add	r0, sp, #14
 145 0010 FFF7FEFF 		bl	OSStatTaskCPUUsageInit
 146              	.LVL6:
 147:APP/app.c     ****   
 147              		.loc 1 147 0
 148 0014 FFF7FEFF 		bl	App_TaskCreate
 149              	.LVL7:
 150              	.L6:
 150:APP/app.c     ****                   OS_OPT_TIME_HMSM_STRICT, 
 151              		.loc 1 150 0 discriminator 1
 152 0018 0DF10E03 		add	r3, sp, #14
 153 001c 0193     		str	r3, [sp, #4]
 154 001e 0020     		movs	r0, #0
 155 0020 0090     		str	r0, [sp]
 156 0022 6423     		movs	r3, #100
 157 0024 0246     		mov	r2, r0
 158 0026 0146     		mov	r1, r0
 159 0028 FFF7FEFF 		bl	OSTimeDlyHMSM
 160              	.LVL8:
 161 002c F4E7     		b	.L6
 162              		.cfi_endproc
 163              	.LFE2:
 164              		.size	App_TaskStart, .-App_TaskStart
 165              		.global	__aeabi_i2d
 166              		.global	__aeabi_dmul
 167              		.global	__aeabi_ddiv
 168 002e 00BF     		.section	.text.App_TaskCOSINE,"ax",%progbits
 169              		.align	2
 170              		.thumb
 171              		.thumb_func
 172              		.type	App_TaskCOSINE, %function
 173              	App_TaskCOSINE:
ARM GAS  C:\Users\filip\AppData\Local\Temp\cc658DaE.s 			page 8


 174              	.LFB5:
 221:APP/app.c     **** 
 222:APP/app.c     **** /*
 223:APP/app.c     **** ***************************************************************************************************
 224:APP/app.c     **** *                                          App_TaskSINE()
 225:APP/app.c     **** *
 226:APP/app.c     **** * Description : SINE Task checks received message from CMD Task and give in case
 227:APP/app.c     **** *               of missing or invalid parameter an error message back 
 228:APP/app.c     **** *               via the UART interface. For the parameter "all" it output all 
 229:APP/app.c     **** *               sine-values from 0-360 with step-size 10. For all numeric parameter 
 230:APP/app.c     **** *               between 0-360 the sin-value will be send vie the UART interface.
 231:APP/app.c     **** *
 232:APP/app.c     **** * Argument(s) : p_arg   is the argument passed to 'App_TaskSINE()' by 'OSTaskCreate()'.
 233:APP/app.c     **** *
 234:APP/app.c     **** * Return(s)   : none
 235:APP/app.c     **** *
 236:APP/app.c     **** * Note(s)     : none
 237:APP/app.c     **** ***************************************************************************************************
 238:APP/app.c     **** */
 239:APP/app.c     **** 
 240:APP/app.c     **** static void App_TaskSINE (void *p_arg)
 241:APP/app.c     **** {
 242:APP/app.c     ****   /* declare and define task local variables */
 243:APP/app.c     ****   OS_ERR       os_err;
 244:APP/app.c     ****   OS_MSG_SIZE  msg_size;
 245:APP/app.c     ****   CPU_INT08U   angle_array[4] = {0};
 246:APP/app.c     ****   CPU_INT16U   angle_value;
 247:APP/app.c     ****   CPU_INT08U*  p_rx_msg;
 248:APP/app.c     ****   
 249:APP/app.c     ****   /* prevent compiler warnings */
 250:APP/app.c     ****   (void)p_arg;
 251:APP/app.c     ****   
 252:APP/app.c     ****   /* start of the endless loop */
 253:APP/app.c     ****   while (DEF_TRUE) {
 254:APP/app.c     ****     
 255:APP/app.c     ****     /* wait for message */
 256:APP/app.c     ****     p_rx_msg = OSTaskQPend(0, OS_OPT_PEND_BLOCKING, &msg_size, (CPU_TS *)0, &os_err);
 257:APP/app.c     ****     if (os_err == OS_ERR_NONE) {
 258:APP/app.c     ****       /* message received */
 259:APP/app.c     ****       if (msg_size <= 3) {
 260:APP/app.c     ****         /* message contains function but no parameter */
 261:APP/app.c     ****         uart_send_string("Argument of function empty!\n");
 262:APP/app.c     ****       }
 263:APP/app.c     ****       else {
 264:APP/app.c     ****         /* get part of message between index = 4 and msg_size but not more then msg_size = 6 */
 265:APP/app.c     ****         memcpy(angle_array, (p_rx_msg+4), (msg_size > 6 ? 6 : msg_size)-3);
 266:APP/app.c     ****         if (BSP_STR_ISBLANC((CPU_CHAR *)angle_array, strlen((CPU_CHAR *)angle_array))) {
 267:APP/app.c     ****           /* message contains function but no parameter */
 268:APP/app.c     ****           uart_send_string("Argument of function empty!\n");
 269:APP/app.c     ****         }
 270:APP/app.c     ****         else if (strncmp((CPU_CHAR *)angle_array, "all", 3) == 0) {
 271:APP/app.c     ****           /* message = 'sin all' -> send sine-values from 0-360 with step-size 10 */
 272:APP/app.c     ****           for (CPU_INT16U a = 0; a <= 360; a+=10) {
 273:APP/app.c     ****             uart_send_double("SINE-RES: ", sin(a * M_PI / 180));
 274:APP/app.c     ****           }
 275:APP/app.c     ****         } else {
 276:APP/app.c     ****           /* check if argument is a number and between 0 and 360 */
ARM GAS  C:\Users\filip\AppData\Local\Temp\cc658DaE.s 			page 9


 277:APP/app.c     ****           CPU_BOOLEAN isNumber = BSP_STR_ISNUMBER((CPU_CHAR *)angle_array, strlen((CPU_CHAR *)angle
 278:APP/app.c     ****           angle_value = atoi((CPU_CHAR *)angle_array);
 279:APP/app.c     ****           
 280:APP/app.c     ****           if (isNumber == DEF_TRUE && angle_value >= 0 && angle_value <= 360) {
 281:APP/app.c     ****             /* argument is a number and between 0 and 360, send calculated sine-value */
 282:APP/app.c     ****             uart_send_double("SINE-RES: ", sin(angle_value * M_PI / 180));
 283:APP/app.c     ****           }
 284:APP/app.c     ****           else {
 285:APP/app.c     ****             /* send message to user that argument exceeds expected value*/
 286:APP/app.c     ****             uart_send_string("Please use a number between 0 and 360\n");
 287:APP/app.c     ****           }
 288:APP/app.c     ****         }
 289:APP/app.c     ****       }
 290:APP/app.c     ****     }
 291:APP/app.c     ****   }
 292:APP/app.c     **** }
 293:APP/app.c     **** 
 294:APP/app.c     **** /*
 295:APP/app.c     **** ***************************************************************************************************
 296:APP/app.c     **** *                                          App_TaskCOSINE()
 297:APP/app.c     **** *
 298:APP/app.c     **** * Description : COSINE Task checks received message from CMD Task and give in case
 299:APP/app.c     **** *               of missing or invalid parameter an error message back 
 300:APP/app.c     **** *               via the UART interface. For the parameter "all" it output all 
 301:APP/app.c     **** *               cosine-values from 0-360 with step-size 10. For all numeric parameter 
 302:APP/app.c     **** *               between 0-360 the cosin-value will be send vie the UART interface.
 303:APP/app.c     **** *
 304:APP/app.c     **** * Argument(s) : p_arg   is the argument passed to 'App_TaskCOSINE()' by 'OSTaskCreate()'.
 305:APP/app.c     **** *
 306:APP/app.c     **** * Return(s)   : none
 307:APP/app.c     **** *
 308:APP/app.c     **** * Note(s)     : none
 309:APP/app.c     **** ***************************************************************************************************
 310:APP/app.c     **** */
 311:APP/app.c     **** 
 312:APP/app.c     **** static void App_TaskCOSINE (void *p_arg)
 313:APP/app.c     **** {
 175              		.loc 1 313 0
 176              		.cfi_startproc
 177              		@ args = 0, pretend = 0, frame = 8
 178              		@ frame_needed = 0, uses_anonymous_args = 0
 179              	.LVL9:
 180 0000 10B5     		push	{r4, lr}
 181              		.cfi_def_cfa_offset 8
 182              		.cfi_offset 4, -8
 183              		.cfi_offset 14, -4
 184 0002 84B0     		sub	sp, sp, #16
 185              		.cfi_def_cfa_offset 24
 314:APP/app.c     ****   /* declare and define task local variables */
 315:APP/app.c     ****   OS_ERR       os_err;
 316:APP/app.c     ****   OS_MSG_SIZE  msg_size;
 317:APP/app.c     ****   CPU_INT08U   angle_array[4] = {0};
 186              		.loc 1 317 0
 187 0004 0023     		movs	r3, #0
 188 0006 0293     		str	r3, [sp, #8]
 189              	.LVL10:
 190              	.L10:
ARM GAS  C:\Users\filip\AppData\Local\Temp\cc658DaE.s 			page 10


 318:APP/app.c     ****   CPU_INT16U   angle_value;
 319:APP/app.c     ****   CPU_INT08U*  p_rx_msg;
 320:APP/app.c     ****   
 321:APP/app.c     ****   /* prevent compiler warnings */
 322:APP/app.c     ****   (void)p_arg;
 323:APP/app.c     ****   
 324:APP/app.c     ****   /* start of the endless loop */
 325:APP/app.c     ****   while (DEF_TRUE) {
 326:APP/app.c     **** 
 327:APP/app.c     ****     /* wait for message */
 328:APP/app.c     ****     p_rx_msg = OSTaskQPend(0, OS_OPT_PEND_BLOCKING, &msg_size, (CPU_TS *)0, &os_err);
 191              		.loc 1 328 0
 192 0008 0DF10E03 		add	r3, sp, #14
 193 000c 0093     		str	r3, [sp]
 194 000e 0023     		movs	r3, #0
 195 0010 03AA     		add	r2, sp, #12
 196 0012 1946     		mov	r1, r3
 197 0014 1846     		mov	r0, r3
 198 0016 FFF7FEFF 		bl	OSTaskQPend
 199              	.LVL11:
 329:APP/app.c     ****     if (os_err == OS_ERR_NONE) {
 200              		.loc 1 329 0
 201 001a BDF80E30 		ldrh	r3, [sp, #14]
 202 001e 002B     		cmp	r3, #0
 203 0020 F2D1     		bne	.L10
 330:APP/app.c     ****       /* message received */
 331:APP/app.c     ****       if (msg_size <= 3) {
 204              		.loc 1 331 0
 205 0022 BDF80C20 		ldrh	r2, [sp, #12]
 206 0026 032A     		cmp	r2, #3
 207 0028 03D8     		bhi	.L11
 332:APP/app.c     ****         /* message contains function but no parameter */
 333:APP/app.c     ****         uart_send_string("Argument of function empty!\n");
 208              		.loc 1 333 0
 209 002a 3548     		ldr	r0, .L23+8
 210              	.LVL12:
 211 002c FFF7FEFF 		bl	uart_send_string
 212              	.LVL13:
 213 0030 EAE7     		b	.L10
 214              	.LVL14:
 215              	.L11:
 334:APP/app.c     ****       }
 335:APP/app.c     ****       else {
 336:APP/app.c     ****         /* get part of message between index = 4 and msg_size but not more then msg_size = 6 */
 337:APP/app.c     ****         memcpy(angle_array, (p_rx_msg+4), (msg_size > 6 ? 6 : msg_size)-3);
 216              		.loc 1 337 0
 217 0032 011D     		adds	r1, r0, #4
 218 0034 062A     		cmp	r2, #6
 219 0036 01D8     		bhi	.L19
 220              		.loc 1 337 0 is_stmt 0 discriminator 1
 221 0038 033A     		subs	r2, r2, #3
 222 003a 00E0     		b	.L13
 223              	.L19:
 224              		.loc 1 337 0
 225 003c 0322     		movs	r2, #3
 226              	.L13:
 227              		.loc 1 337 0 discriminator 4
ARM GAS  C:\Users\filip\AppData\Local\Temp\cc658DaE.s 			page 11


 228 003e 02A8     		add	r0, sp, #8
 229              	.LVL15:
 230 0040 FFF7FEFF 		bl	memcpy
 231              	.LVL16:
 338:APP/app.c     ****         if (BSP_STR_ISBLANC((CPU_CHAR *)angle_array, strlen((CPU_CHAR *)angle_array))) {
 232              		.loc 1 338 0 is_stmt 1 discriminator 4
 233 0044 02A8     		add	r0, sp, #8
 234 0046 FFF7FEFF 		bl	strlen
 235              	.LVL17:
 236 004a 0146     		mov	r1, r0
 237 004c 02A8     		add	r0, sp, #8
 238 004e FFF7FEFF 		bl	BSP_STR_ISBLANC
 239              	.LVL18:
 240 0052 18B1     		cbz	r0, .L14
 339:APP/app.c     ****           /* message contains function but no parameter */
 340:APP/app.c     ****           uart_send_string("Argument of function empty!\n");
 241              		.loc 1 340 0
 242 0054 2A48     		ldr	r0, .L23+8
 243 0056 FFF7FEFF 		bl	uart_send_string
 244              	.LVL19:
 245 005a D5E7     		b	.L10
 246              	.L14:
 341:APP/app.c     ****         }
 342:APP/app.c     ****         else if (strncmp((CPU_CHAR *)angle_array, "all", 3) == 0) {
 247              		.loc 1 342 0
 248 005c 0322     		movs	r2, #3
 249 005e 2949     		ldr	r1, .L23+12
 250 0060 02A8     		add	r0, sp, #8
 251 0062 FFF7FEFF 		bl	strncmp
 252              	.LVL20:
 253 0066 B0B1     		cbz	r0, .L20
 254 0068 1AE0     		b	.L21
 255              	.LVL21:
 256              	.L17:
 257              	.LBB2:
 343:APP/app.c     ****           /* message = 'cos all' -> send cosine-values from 0-360 with step-size 10 */
 344:APP/app.c     ****           for (CPU_INT16U a = 0; a <= 360; a+=10) {
 345:APP/app.c     ****             uart_send_double("COSINE-RES: ", cos(a * M_PI / 180));
 258              		.loc 1 345 0 discriminator 3
 259 006a 2046     		mov	r0, r4
 260 006c FFF7FEFF 		bl	__aeabi_i2d
 261              	.LVL22:
 262 0070 21A3     		adr	r3, .L23
 263 0072 D3E90023 		ldrd	r2, [r3]
 264 0076 FFF7FEFF 		bl	__aeabi_dmul
 265              	.LVL23:
 266 007a 0022     		movs	r2, #0
 267 007c 224B     		ldr	r3, .L23+16
 268 007e FFF7FEFF 		bl	__aeabi_ddiv
 269              	.LVL24:
 270 0082 FFF7FEFF 		bl	cos
 271              	.LVL25:
 272 0086 0246     		mov	r2, r0
 273 0088 0B46     		mov	r3, r1
 274 008a 2048     		ldr	r0, .L23+20
 275 008c FFF7FEFF 		bl	uart_send_double
 276              	.LVL26:
ARM GAS  C:\Users\filip\AppData\Local\Temp\cc658DaE.s 			page 12


 344:APP/app.c     ****             uart_send_double("COSINE-RES: ", cos(a * M_PI / 180));
 277              		.loc 1 344 0 discriminator 3
 278 0090 0A34     		adds	r4, r4, #10
 279              	.LVL27:
 280 0092 A4B2     		uxth	r4, r4
 281              	.LVL28:
 282 0094 00E0     		b	.L15
 283              	.LVL29:
 284              	.L20:
 285              	.LBE2:
 286 0096 0024     		movs	r4, #0
 287              	.L15:
 288              	.LVL30:
 289              	.LBB3:
 344:APP/app.c     ****             uart_send_double("COSINE-RES: ", cos(a * M_PI / 180));
 290              		.loc 1 344 0 is_stmt 0 discriminator 1
 291 0098 B4F5B47F 		cmp	r4, #360
 292 009c E5D9     		bls	.L17
 293 009e B3E7     		b	.L10
 294              	.LVL31:
 295              	.L21:
 296              	.LBE3:
 297              	.LBB4:
 346:APP/app.c     ****           }
 347:APP/app.c     ****         } else {
 348:APP/app.c     ****           /* check if argument is a number and between 0 and 360 */
 349:APP/app.c     ****           CPU_BOOLEAN isNumber = BSP_STR_ISNUMBER((CPU_CHAR *)angle_array, strlen((CPU_CHAR *)angle
 298              		.loc 1 349 0 is_stmt 1
 299 00a0 02A8     		add	r0, sp, #8
 300 00a2 FFF7FEFF 		bl	strlen
 301              	.LVL32:
 302 00a6 0146     		mov	r1, r0
 303 00a8 02A8     		add	r0, sp, #8
 304 00aa FFF7FEFF 		bl	BSP_STR_ISNUMBER
 305              	.LVL33:
 306 00ae 0446     		mov	r4, r0
 307              	.LVL34:
 350:APP/app.c     ****           angle_value = atoi((CPU_CHAR *)angle_array);
 308              		.loc 1 350 0
 309 00b0 02A8     		add	r0, sp, #8
 310 00b2 FFF7FEFF 		bl	atoi
 311              	.LVL35:
 312 00b6 83B2     		uxth	r3, r0
 313              	.LVL36:
 351:APP/app.c     ****           
 352:APP/app.c     ****           if (isNumber == DEF_TRUE && angle_value >= 0 && angle_value <= 360) {
 314              		.loc 1 352 0
 315 00b8 012C     		cmp	r4, #1
 316 00ba 16D1     		bne	.L18
 317              		.loc 1 352 0 is_stmt 0 discriminator 1
 318 00bc B3F5B47F 		cmp	r3, #360
 319 00c0 13D8     		bhi	.L18
 353:APP/app.c     ****             /* argument is a number and between 0 and 360, send calculated cosine-value */
 354:APP/app.c     ****             uart_send_double("COSINE-RES: ", cos(angle_value * M_PI / 180));
 320              		.loc 1 354 0 is_stmt 1
 321 00c2 1846     		mov	r0, r3
 322 00c4 FFF7FEFF 		bl	__aeabi_i2d
ARM GAS  C:\Users\filip\AppData\Local\Temp\cc658DaE.s 			page 13


 323              	.LVL37:
 324 00c8 0BA3     		adr	r3, .L23
 325 00ca D3E90023 		ldrd	r2, [r3]
 326 00ce FFF7FEFF 		bl	__aeabi_dmul
 327              	.LVL38:
 328 00d2 0022     		movs	r2, #0
 329 00d4 0C4B     		ldr	r3, .L23+16
 330 00d6 FFF7FEFF 		bl	__aeabi_ddiv
 331              	.LVL39:
 332 00da FFF7FEFF 		bl	cos
 333              	.LVL40:
 334 00de 0246     		mov	r2, r0
 335 00e0 0B46     		mov	r3, r1
 336 00e2 0A48     		ldr	r0, .L23+20
 337 00e4 FFF7FEFF 		bl	uart_send_double
 338              	.LVL41:
 339 00e8 8EE7     		b	.L10
 340              	.LVL42:
 341              	.L18:
 355:APP/app.c     ****           }
 356:APP/app.c     ****           else {
 357:APP/app.c     ****             /* send message to user that argument exceeds expected value*/
 358:APP/app.c     ****             uart_send_string("Please use a number between 0 and 360\n");
 342              		.loc 1 358 0
 343 00ea 0948     		ldr	r0, .L23+24
 344 00ec FFF7FEFF 		bl	uart_send_string
 345              	.LVL43:
 346 00f0 8AE7     		b	.L10
 347              	.L24:
 348 00f2 00BFAFF3 		.align	3
 348      0080
 349              	.L23:
 350 00f8 182D4454 		.word	1413754136
 351 00fc FB210940 		.word	1074340347
 352 0100 20000000 		.word	.LC3
 353 0104 40000000 		.word	.LC4
 354 0108 00806640 		.word	1080459264
 355 010c 44000000 		.word	.LC5
 356 0110 54000000 		.word	.LC6
 357              	.LBE4:
 358              		.cfi_endproc
 359              	.LFE5:
 360              		.size	App_TaskCOSINE, .-App_TaskCOSINE
 361              		.section	.text.App_TaskSINE,"ax",%progbits
 362              		.align	2
 363              		.thumb
 364              		.thumb_func
 365              		.type	App_TaskSINE, %function
 366              	App_TaskSINE:
 367              	.LFB4:
 241:APP/app.c     ****   /* declare and define task local variables */
 368              		.loc 1 241 0
 369              		.cfi_startproc
 370              		@ args = 0, pretend = 0, frame = 8
 371              		@ frame_needed = 0, uses_anonymous_args = 0
 372              	.LVL44:
 373 0000 10B5     		push	{r4, lr}
ARM GAS  C:\Users\filip\AppData\Local\Temp\cc658DaE.s 			page 14


 374              		.cfi_def_cfa_offset 8
 375              		.cfi_offset 4, -8
 376              		.cfi_offset 14, -4
 377 0002 84B0     		sub	sp, sp, #16
 378              		.cfi_def_cfa_offset 24
 245:APP/app.c     ****   CPU_INT16U   angle_value;
 379              		.loc 1 245 0
 380 0004 0023     		movs	r3, #0
 381 0006 0293     		str	r3, [sp, #8]
 382              	.LVL45:
 383              	.L27:
 256:APP/app.c     ****     if (os_err == OS_ERR_NONE) {
 384              		.loc 1 256 0
 385 0008 0DF10E03 		add	r3, sp, #14
 386 000c 0093     		str	r3, [sp]
 387 000e 0023     		movs	r3, #0
 388 0010 03AA     		add	r2, sp, #12
 389 0012 1946     		mov	r1, r3
 390 0014 1846     		mov	r0, r3
 391 0016 FFF7FEFF 		bl	OSTaskQPend
 392              	.LVL46:
 257:APP/app.c     ****       /* message received */
 393              		.loc 1 257 0
 394 001a BDF80E30 		ldrh	r3, [sp, #14]
 395 001e 002B     		cmp	r3, #0
 396 0020 F2D1     		bne	.L27
 259:APP/app.c     ****         /* message contains function but no parameter */
 397              		.loc 1 259 0
 398 0022 BDF80C20 		ldrh	r2, [sp, #12]
 399 0026 032A     		cmp	r2, #3
 400 0028 03D8     		bhi	.L28
 261:APP/app.c     ****       }
 401              		.loc 1 261 0
 402 002a 3548     		ldr	r0, .L40+8
 403              	.LVL47:
 404 002c FFF7FEFF 		bl	uart_send_string
 405              	.LVL48:
 406 0030 EAE7     		b	.L27
 407              	.LVL49:
 408              	.L28:
 265:APP/app.c     ****         if (BSP_STR_ISBLANC((CPU_CHAR *)angle_array, strlen((CPU_CHAR *)angle_array))) {
 409              		.loc 1 265 0
 410 0032 011D     		adds	r1, r0, #4
 411 0034 062A     		cmp	r2, #6
 412 0036 01D8     		bhi	.L36
 265:APP/app.c     ****         if (BSP_STR_ISBLANC((CPU_CHAR *)angle_array, strlen((CPU_CHAR *)angle_array))) {
 413              		.loc 1 265 0 is_stmt 0 discriminator 1
 414 0038 033A     		subs	r2, r2, #3
 415 003a 00E0     		b	.L30
 416              	.L36:
 265:APP/app.c     ****         if (BSP_STR_ISBLANC((CPU_CHAR *)angle_array, strlen((CPU_CHAR *)angle_array))) {
 417              		.loc 1 265 0
 418 003c 0322     		movs	r2, #3
 419              	.L30:
 265:APP/app.c     ****         if (BSP_STR_ISBLANC((CPU_CHAR *)angle_array, strlen((CPU_CHAR *)angle_array))) {
 420              		.loc 1 265 0 discriminator 4
 421 003e 02A8     		add	r0, sp, #8
ARM GAS  C:\Users\filip\AppData\Local\Temp\cc658DaE.s 			page 15


 422              	.LVL50:
 423 0040 FFF7FEFF 		bl	memcpy
 424              	.LVL51:
 266:APP/app.c     ****           /* message contains function but no parameter */
 425              		.loc 1 266 0 is_stmt 1 discriminator 4
 426 0044 02A8     		add	r0, sp, #8
 427 0046 FFF7FEFF 		bl	strlen
 428              	.LVL52:
 429 004a 0146     		mov	r1, r0
 430 004c 02A8     		add	r0, sp, #8
 431 004e FFF7FEFF 		bl	BSP_STR_ISBLANC
 432              	.LVL53:
 433 0052 18B1     		cbz	r0, .L31
 268:APP/app.c     ****         }
 434              		.loc 1 268 0
 435 0054 2A48     		ldr	r0, .L40+8
 436 0056 FFF7FEFF 		bl	uart_send_string
 437              	.LVL54:
 438 005a D5E7     		b	.L27
 439              	.L31:
 270:APP/app.c     ****           /* message = 'sin all' -> send sine-values from 0-360 with step-size 10 */
 440              		.loc 1 270 0
 441 005c 0322     		movs	r2, #3
 442 005e 2949     		ldr	r1, .L40+12
 443 0060 02A8     		add	r0, sp, #8
 444 0062 FFF7FEFF 		bl	strncmp
 445              	.LVL55:
 446 0066 B0B1     		cbz	r0, .L37
 447 0068 1AE0     		b	.L38
 448              	.LVL56:
 449              	.L34:
 450              	.LBB5:
 273:APP/app.c     ****           }
 451              		.loc 1 273 0 discriminator 3
 452 006a 2046     		mov	r0, r4
 453 006c FFF7FEFF 		bl	__aeabi_i2d
 454              	.LVL57:
 455 0070 21A3     		adr	r3, .L40
 456 0072 D3E90023 		ldrd	r2, [r3]
 457 0076 FFF7FEFF 		bl	__aeabi_dmul
 458              	.LVL58:
 459 007a 0022     		movs	r2, #0
 460 007c 224B     		ldr	r3, .L40+16
 461 007e FFF7FEFF 		bl	__aeabi_ddiv
 462              	.LVL59:
 463 0082 FFF7FEFF 		bl	sin
 464              	.LVL60:
 465 0086 0246     		mov	r2, r0
 466 0088 0B46     		mov	r3, r1
 467 008a 2048     		ldr	r0, .L40+20
 468 008c FFF7FEFF 		bl	uart_send_double
 469              	.LVL61:
 272:APP/app.c     ****             uart_send_double("SINE-RES: ", sin(a * M_PI / 180));
 470              		.loc 1 272 0 discriminator 3
 471 0090 0A34     		adds	r4, r4, #10
 472              	.LVL62:
 473 0092 A4B2     		uxth	r4, r4
ARM GAS  C:\Users\filip\AppData\Local\Temp\cc658DaE.s 			page 16


 474              	.LVL63:
 475 0094 00E0     		b	.L32
 476              	.LVL64:
 477              	.L37:
 478              	.LBE5:
 479 0096 0024     		movs	r4, #0
 480              	.L32:
 481              	.LVL65:
 482              	.LBB6:
 272:APP/app.c     ****             uart_send_double("SINE-RES: ", sin(a * M_PI / 180));
 483              		.loc 1 272 0 is_stmt 0 discriminator 1
 484 0098 B4F5B47F 		cmp	r4, #360
 485 009c E5D9     		bls	.L34
 486 009e B3E7     		b	.L27
 487              	.LVL66:
 488              	.L38:
 489              	.LBE6:
 490              	.LBB7:
 277:APP/app.c     ****           angle_value = atoi((CPU_CHAR *)angle_array);
 491              		.loc 1 277 0 is_stmt 1
 492 00a0 02A8     		add	r0, sp, #8
 493 00a2 FFF7FEFF 		bl	strlen
 494              	.LVL67:
 495 00a6 0146     		mov	r1, r0
 496 00a8 02A8     		add	r0, sp, #8
 497 00aa FFF7FEFF 		bl	BSP_STR_ISNUMBER
 498              	.LVL68:
 499 00ae 0446     		mov	r4, r0
 500              	.LVL69:
 278:APP/app.c     ****           
 501              		.loc 1 278 0
 502 00b0 02A8     		add	r0, sp, #8
 503 00b2 FFF7FEFF 		bl	atoi
 504              	.LVL70:
 505 00b6 83B2     		uxth	r3, r0
 506              	.LVL71:
 280:APP/app.c     ****             /* argument is a number and between 0 and 360, send calculated sine-value */
 507              		.loc 1 280 0
 508 00b8 012C     		cmp	r4, #1
 509 00ba 16D1     		bne	.L35
 280:APP/app.c     ****             /* argument is a number and between 0 and 360, send calculated sine-value */
 510              		.loc 1 280 0 is_stmt 0 discriminator 1
 511 00bc B3F5B47F 		cmp	r3, #360
 512 00c0 13D8     		bhi	.L35
 282:APP/app.c     ****           }
 513              		.loc 1 282 0 is_stmt 1
 514 00c2 1846     		mov	r0, r3
 515 00c4 FFF7FEFF 		bl	__aeabi_i2d
 516              	.LVL72:
 517 00c8 0BA3     		adr	r3, .L40
 518 00ca D3E90023 		ldrd	r2, [r3]
 519 00ce FFF7FEFF 		bl	__aeabi_dmul
 520              	.LVL73:
 521 00d2 0022     		movs	r2, #0
 522 00d4 0C4B     		ldr	r3, .L40+16
 523 00d6 FFF7FEFF 		bl	__aeabi_ddiv
 524              	.LVL74:
ARM GAS  C:\Users\filip\AppData\Local\Temp\cc658DaE.s 			page 17


 525 00da FFF7FEFF 		bl	sin
 526              	.LVL75:
 527 00de 0246     		mov	r2, r0
 528 00e0 0B46     		mov	r3, r1
 529 00e2 0A48     		ldr	r0, .L40+20
 530 00e4 FFF7FEFF 		bl	uart_send_double
 531              	.LVL76:
 532 00e8 8EE7     		b	.L27
 533              	.LVL77:
 534              	.L35:
 286:APP/app.c     ****           }
 535              		.loc 1 286 0
 536 00ea 0948     		ldr	r0, .L40+24
 537 00ec FFF7FEFF 		bl	uart_send_string
 538              	.LVL78:
 539 00f0 8AE7     		b	.L27
 540              	.L41:
 541 00f2 00BFAFF3 		.align	3
 541      0080
 542              	.L40:
 543 00f8 182D4454 		.word	1413754136
 544 00fc FB210940 		.word	1074340347
 545 0100 20000000 		.word	.LC3
 546 0104 40000000 		.word	.LC4
 547 0108 00806640 		.word	1080459264
 548 010c 7C000000 		.word	.LC7
 549 0110 54000000 		.word	.LC6
 550              	.LBE7:
 551              		.cfi_endproc
 552              	.LFE4:
 553              		.size	App_TaskSINE, .-App_TaskSINE
 554              		.section	.text.App_TaskCMD,"ax",%progbits
 555              		.align	2
 556              		.thumb
 557              		.thumb_func
 558              		.type	App_TaskCMD, %function
 559              	App_TaskCMD:
 560              	.LFB6:
 359:APP/app.c     ****           }
 360:APP/app.c     ****         }
 361:APP/app.c     ****       }
 362:APP/app.c     ****     }
 363:APP/app.c     ****   }
 364:APP/app.c     **** }
 365:APP/app.c     **** 
 366:APP/app.c     **** /*
 367:APP/app.c     **** ***************************************************************************************************
 368:APP/app.c     **** *                                          App_TaskCMD()
 369:APP/app.c     **** *
 370:APP/app.c     **** * Description : CMD Task checks for available bytes within the UART receive buffer. If correct stri
 371:APP/app.c     **** *               available (e.g. PC -> uC: #abc$ or #Hellor World$), process the message and send it
 372:APP/app.c     **** *               COSINE Task for further processing, otherwise it output a help message via the UART
 373:APP/app.c     **** *
 374:APP/app.c     **** * Argument(s) : p_arg   is the argument passed to 'App_TaskCMD()' by 'OSTaskCreate()'.
 375:APP/app.c     **** *
 376:APP/app.c     **** * Return(s)   : none
 377:APP/app.c     **** *
ARM GAS  C:\Users\filip\AppData\Local\Temp\cc658DaE.s 			page 18


 378:APP/app.c     **** * Note(s)     : none
 379:APP/app.c     **** ***************************************************************************************************
 380:APP/app.c     **** */
 381:APP/app.c     **** 
 382:APP/app.c     **** static  void  App_TaskCMD (void *p_arg)
 383:APP/app.c     **** {
 561              		.loc 1 383 0
 562              		.cfi_startproc
 563              		@ args = 0, pretend = 0, frame = 72
 564              		@ frame_needed = 0, uses_anonymous_args = 0
 565              	.LVL79:
 566 0000 30B5     		push	{r4, r5, lr}
 567              		.cfi_def_cfa_offset 12
 568              		.cfi_offset 4, -12
 569              		.cfi_offset 5, -8
 570              		.cfi_offset 14, -4
 571 0002 95B0     		sub	sp, sp, #84
 572              		.cfi_def_cfa_offset 96
 573              	.LVL80:
 384:APP/app.c     ****   /* declare and define task local variables */
 385:APP/app.c     ****   OS_ERR       os_err;
 386:APP/app.c     ****   CPU_INT08U   rec_byte = 0x00;
 387:APP/app.c     ****   CPU_INT08U   rx_msg[UART_1_RX_BUFFER_SIZE] = {0};
 574              		.loc 1 387 0
 575 0004 4022     		movs	r2, #64
 576 0006 0021     		movs	r1, #0
 577 0008 03A8     		add	r0, sp, #12
 578              	.LVL81:
 579 000a FFF7FEFF 		bl	memset
 580              	.LVL82:
 388:APP/app.c     ****   CPU_INT08U   idx = 0x00;
 389:APP/app.c     ****   CPU_INT08U   rec_byte_cnt = 0x00;
 581              		.loc 1 389 0
 582 000e 0025     		movs	r5, #0
 388:APP/app.c     ****   CPU_INT08U   idx = 0x00;
 583              		.loc 1 388 0
 584 0010 2C46     		mov	r4, r5
 585              	.LVL83:
 586              	.L53:
 390:APP/app.c     ****   CPU_BOOLEAN  str_available = DEF_FALSE;
 391:APP/app.c     ****   
 392:APP/app.c     ****   /* prevent compiler warnings */
 393:APP/app.c     ****   (void)p_arg;
 394:APP/app.c     ****   (void)Start_of_Packet;
 395:APP/app.c     ****   (void)End_of_Packet;
 396:APP/app.c     ****   
 397:APP/app.c     ****   /* start of the endless loop */
 398:APP/app.c     ****   while (DEF_TRUE) {
 399:APP/app.c     ****     /* check if a byte is available */
 400:APP/app.c     ****     rec_byte = uart_get_byte();
 587              		.loc 1 400 0
 588 0012 FFF7FEFF 		bl	uart_get_byte
 589              	.LVL84:
 401:APP/app.c     ****     /* check if the received byte is '#'*/
 402:APP/app.c     ****     if(rec_byte == Start_of_Packet){
 590              		.loc 1 402 0
 591 0016 2328     		cmp	r0, #35
ARM GAS  C:\Users\filip\AppData\Local\Temp\cc658DaE.s 			page 19


 592 0018 22D1     		bne	.L43
 593              	.LVL85:
 594              	.L45:
 403:APP/app.c     ****       /* if received byte was correct */
 404:APP/app.c     ****       while(DEF_TRUE){
 405:APP/app.c     ****         /* receive byte by byte */
 406:APP/app.c     ****         rec_byte = uart_get_byte();
 595              		.loc 1 406 0
 596 001a FFF7FEFF 		bl	uart_get_byte
 597              	.LVL86:
 407:APP/app.c     ****         /* check if byte is something meaningful */
 408:APP/app.c     ****         if(rec_byte){
 598              		.loc 1 408 0
 599 001e 28B1     		cbz	r0, .L44
 409:APP/app.c     ****           /* save byte into software receive buffer and increment idx */
 410:APP/app.c     ****           rx_msg[idx++] = rec_byte;
 600              		.loc 1 410 0
 601 0020 621C     		adds	r2, r4, #1
 602              	.LVL87:
 603 0022 14A9     		add	r1, sp, #80
 604 0024 0C44     		add	r4, r4, r1
 605 0026 04F8440C 		strb	r0, [r4, #-68]
 606 002a D4B2     		uxtb	r4, r2
 607              	.LVL88:
 608              	.L44:
 411:APP/app.c     ****         }
 412:APP/app.c     ****         /* initiate scheduler */
 413:APP/app.c     ****         OSTimeDlyHMSM(0, 0, 0, 20, 
 609              		.loc 1 413 0
 610 002c 0DF14E03 		add	r3, sp, #78
 611 0030 0193     		str	r3, [sp, #4]
 612 0032 0020     		movs	r0, #0
 613              	.LVL89:
 614 0034 0090     		str	r0, [sp]
 615 0036 1423     		movs	r3, #20
 616 0038 0246     		mov	r2, r0
 617 003a 0146     		mov	r1, r0
 618 003c FFF7FEFF 		bl	OSTimeDlyHMSM
 619              	.LVL90:
 414:APP/app.c     ****                       OS_OPT_TIME_HMSM_STRICT, 
 415:APP/app.c     ****                       &os_err);
 416:APP/app.c     ****         /* check if received byte is '$' */
 417:APP/app.c     ****         if(rx_msg[idx-1]==End_of_Packet){
 620              		.loc 1 417 0
 621 0040 631E     		subs	r3, r4, #1
 622 0042 14AA     		add	r2, sp, #80
 623 0044 1A44     		add	r2, r2, r3
 624 0046 12F8442C 		ldrb	r2, [r2, #-68]	@ zero_extendqisi2
 625 004a 242A     		cmp	r2, #36
 626 004c E5D1     		bne	.L45
 418:APP/app.c     ****           /* if end of packet is reached -> break */
 419:APP/app.c     ****           break;
 420:APP/app.c     ****         }
 421:APP/app.c     ****       }
 422:APP/app.c     ****       /* Remove end of packet character */
 423:APP/app.c     ****       rx_msg[idx-1] = '\0';
 627              		.loc 1 423 0
ARM GAS  C:\Users\filip\AppData\Local\Temp\cc658DaE.s 			page 20


 628 004e 14AA     		add	r2, sp, #80
 629 0050 1344     		add	r3, r3, r2
 630 0052 0022     		movs	r2, #0
 631 0054 03F8442C 		strb	r2, [r3, #-68]
 424:APP/app.c     ****       /* message received, calculate received bytes, -2 because of '#' & '$' */
 425:APP/app.c     ****       rec_byte_cnt = idx-2;
 632              		.loc 1 425 0
 633 0058 A31E     		subs	r3, r4, #2
 634 005a DDB2     		uxtb	r5, r3
 635              	.LVL91:
 426:APP/app.c     ****       /* signal that a string is available */
 427:APP/app.c     ****       str_available = DEF_TRUE;
 636              		.loc 1 427 0
 637 005c 0123     		movs	r3, #1
 638 005e 06E0     		b	.L46
 639              	.LVL92:
 640              	.L43:
 428:APP/app.c     ****     }
 429:APP/app.c     ****     /* if received byte wasn't start of packet */
 430:APP/app.c     ****     else{
 431:APP/app.c     ****       /* reset software receive buffer */
 432:APP/app.c     ****       memset(&rx_msg[0],0,sizeof(rx_msg));
 641              		.loc 1 432 0
 642 0060 4022     		movs	r2, #64
 643 0062 0021     		movs	r1, #0
 644 0064 03A8     		add	r0, sp, #12
 645              	.LVL93:
 646 0066 FFF7FEFF 		bl	memset
 647              	.LVL94:
 433:APP/app.c     ****       /* reset string available signal */
 434:APP/app.c     ****       str_available = DEF_FALSE;
 648              		.loc 1 434 0
 649 006a 0023     		movs	r3, #0
 435:APP/app.c     ****       /* reset received byte variable */
 436:APP/app.c     ****       rec_byte = 0x00;
 437:APP/app.c     ****       /* reset idx */
 438:APP/app.c     ****       idx = 0x00;
 650              		.loc 1 438 0
 651 006c 1C46     		mov	r4, r3
 652              	.LVL95:
 653              	.L46:
 439:APP/app.c     ****     }
 440:APP/app.c     ****     /* check if message is available */
 441:APP/app.c     ****     if(str_available){
 654              		.loc 1 441 0
 655 006e 002B     		cmp	r3, #0
 656 0070 3DD0     		beq	.L47
 442:APP/app.c     ****       /* process received message */
 443:APP/app.c     ****       /* check if message start with 'sin ' */
 444:APP/app.c     ****       if (strncmp((CPU_CHAR *)rx_msg,"sin ",4)==0) {
 657              		.loc 1 444 0
 658 0072 0422     		movs	r2, #4
 659 0074 2349     		ldr	r1, .L55
 660 0076 03A8     		add	r0, sp, #12
 661 0078 FFF7FEFF 		bl	strncmp
 662              	.LVL96:
 663 007c 78B9     		cbnz	r0, .L48
ARM GAS  C:\Users\filip\AppData\Local\Temp\cc658DaE.s 			page 21


 445:APP/app.c     ****         /* message start with 'sin ' */
 446:APP/app.c     ****         if (rec_byte_cnt<=6) {
 664              		.loc 1 446 0
 665 007e 062D     		cmp	r5, #6
 666 0080 09D8     		bhi	.L49
 447:APP/app.c     ****           /* message is not longer as 7 characters (e.g. 'sin 360', 'sin all') */
 448:APP/app.c     ****           /* send received message to SINE Task*/
 449:APP/app.c     ****           OSTaskQPost((OS_TCB      *)&App_TaskSine_TCB,
 667              		.loc 1 449 0
 668 0082 0DF14E03 		add	r3, sp, #78
 669 0086 0093     		str	r3, [sp]
 670 0088 0023     		movs	r3, #0
 671 008a 4022     		movs	r2, #64
 672 008c 03A9     		add	r1, sp, #12
 673 008e 1E48     		ldr	r0, .L55+4
 674 0090 FFF7FEFF 		bl	OSTaskQPost
 675              	.LVL97:
 676 0094 25E0     		b	.L50
 677              	.L49:
 450:APP/app.c     ****                       (CPU_INT08U  *)&rx_msg[0],
 451:APP/app.c     ****                       (OS_MSG_SIZE  )sizeof(rx_msg),
 452:APP/app.c     ****                       (OS_OPT       )OS_OPT_POST_FIFO,
 453:APP/app.c     ****                       (OS_ERR      *)&os_err);
 454:APP/app.c     ****         } else {
 455:APP/app.c     ****           /* send message to user that entered message exceeds expected length*/
 456:APP/app.c     ****           uart_send_string("Please use a number between 0 and 360\n");
 678              		.loc 1 456 0
 679 0096 1D48     		ldr	r0, .L55+8
 680 0098 FFF7FEFF 		bl	uart_send_string
 681              	.LVL98:
 682 009c 21E0     		b	.L50
 683              	.L48:
 457:APP/app.c     ****         }
 458:APP/app.c     ****       }
 459:APP/app.c     ****       /* check if message start with 'cos ' */
 460:APP/app.c     ****       else if (strncmp((CPU_CHAR *)rx_msg,"cos ",4)==0){
 684              		.loc 1 460 0
 685 009e 0422     		movs	r2, #4
 686 00a0 1B49     		ldr	r1, .L55+12
 687 00a2 03A8     		add	r0, sp, #12
 688 00a4 FFF7FEFF 		bl	strncmp
 689              	.LVL99:
 690 00a8 78B9     		cbnz	r0, .L51
 461:APP/app.c     ****         /* message start with 'cos ' */
 462:APP/app.c     ****         if (rec_byte_cnt<=6) {
 691              		.loc 1 462 0
 692 00aa 062D     		cmp	r5, #6
 693 00ac 09D8     		bhi	.L52
 463:APP/app.c     ****           /* message is not longer as 7 characters (e.g. 'cos 360', 'cos all') */
 464:APP/app.c     ****           /* send received message to COSINE Task*/
 465:APP/app.c     ****           OSTaskQPost((OS_TCB      *)&App_TaskCosine_TCB,
 694              		.loc 1 465 0
 695 00ae 0DF14E03 		add	r3, sp, #78
 696 00b2 0093     		str	r3, [sp]
 697 00b4 0023     		movs	r3, #0
 698 00b6 4022     		movs	r2, #64
 699 00b8 03A9     		add	r1, sp, #12
ARM GAS  C:\Users\filip\AppData\Local\Temp\cc658DaE.s 			page 22


 700 00ba 1648     		ldr	r0, .L55+16
 701 00bc FFF7FEFF 		bl	OSTaskQPost
 702              	.LVL100:
 703 00c0 0FE0     		b	.L50
 704              	.L52:
 466:APP/app.c     ****                       (CPU_INT08U  *)&rx_msg[0],
 467:APP/app.c     ****                       (OS_MSG_SIZE  )sizeof(rx_msg),
 468:APP/app.c     ****                       (OS_OPT       )OS_OPT_POST_FIFO,
 469:APP/app.c     ****                       (OS_ERR      *)&os_err);
 470:APP/app.c     ****         } else {
 471:APP/app.c     ****           /* send message to user that entered message exceeds expected length*/
 472:APP/app.c     ****           uart_send_string("Please use a number between 0 and 360\n");
 705              		.loc 1 472 0
 706 00c2 1248     		ldr	r0, .L55+8
 707 00c4 FFF7FEFF 		bl	uart_send_string
 708              	.LVL101:
 709 00c8 0BE0     		b	.L50
 710              	.L51:
 473:APP/app.c     ****         }
 474:APP/app.c     ****       }
 475:APP/app.c     ****       else {
 476:APP/app.c     ****         /* unknown message received, send help message to user */
 477:APP/app.c     ****         uart_send_string("Command not found!\n\n");
 711              		.loc 1 477 0
 712 00ca 1348     		ldr	r0, .L55+20
 713 00cc FFF7FEFF 		bl	uart_send_string
 714              	.LVL102:
 478:APP/app.c     ****         uart_send_string("Please use on of the following commands:\n");
 715              		.loc 1 478 0
 716 00d0 1248     		ldr	r0, .L55+24
 717 00d2 FFF7FEFF 		bl	uart_send_string
 718              	.LVL103:
 479:APP/app.c     ****         uart_send_string("\t*) \"sin x\" where x is a number between 0 and 360 or \"sin all\"\n");
 719              		.loc 1 479 0
 720 00d6 1248     		ldr	r0, .L55+28
 721 00d8 FFF7FEFF 		bl	uart_send_string
 722              	.LVL104:
 480:APP/app.c     ****         uart_send_string("\t*) \"cos x\" where x is a number between 0 and 360 or \"cos all\"\n");
 723              		.loc 1 480 0
 724 00dc 1148     		ldr	r0, .L55+32
 725 00de FFF7FEFF 		bl	uart_send_string
 726              	.LVL105:
 727              	.L50:
 481:APP/app.c     ****       }
 482:APP/app.c     ****       /* reset software receive buffer */
 483:APP/app.c     ****       memset(&rx_msg[0],0,sizeof(rx_msg));
 728              		.loc 1 483 0
 729 00e2 4022     		movs	r2, #64
 730 00e4 0021     		movs	r1, #0
 731 00e6 03A8     		add	r0, sp, #12
 732 00e8 FFF7FEFF 		bl	memset
 733              	.LVL106:
 484:APP/app.c     ****       /* reset string available signal */
 485:APP/app.c     ****       str_available = DEF_FALSE;
 486:APP/app.c     ****       /* reset received byte variable */
 487:APP/app.c     ****       rec_byte = 0x00;
 488:APP/app.c     ****       /* reset idx */
ARM GAS  C:\Users\filip\AppData\Local\Temp\cc658DaE.s 			page 23


 489:APP/app.c     ****       idx = 0x00;
 734              		.loc 1 489 0
 735 00ec 0024     		movs	r4, #0
 736              	.LVL107:
 737              	.L47:
 490:APP/app.c     ****     }
 491:APP/app.c     ****     /* initiate scheduler */
 492:APP/app.c     ****     OSTimeDlyHMSM(0, 0, 0, 100, 
 738              		.loc 1 492 0
 739 00ee 0DF14E03 		add	r3, sp, #78
 740 00f2 0193     		str	r3, [sp, #4]
 741 00f4 0020     		movs	r0, #0
 742 00f6 0090     		str	r0, [sp]
 743 00f8 6423     		movs	r3, #100
 744 00fa 0246     		mov	r2, r0
 745 00fc 0146     		mov	r1, r0
 746 00fe FFF7FEFF 		bl	OSTimeDlyHMSM
 747              	.LVL108:
 493:APP/app.c     ****                   OS_OPT_TIME_HMSM_STRICT, 
 494:APP/app.c     ****                   &os_err);
 495:APP/app.c     ****   }
 748              		.loc 1 495 0
 749 0102 86E7     		b	.L53
 750              	.L56:
 751              		.align	2
 752              	.L55:
 753 0104 88000000 		.word	.LC8
 754 0108 C0040000 		.word	.LANCHOR0+1216
 755 010c 54000000 		.word	.LC6
 756 0110 90000000 		.word	.LC9
 757 0114 80090000 		.word	.LANCHOR0+2432
 758 0118 98000000 		.word	.LC10
 759 011c B0000000 		.word	.LC11
 760 0120 DC000000 		.word	.LC12
 761 0124 1C010000 		.word	.LC13
 762              		.cfi_endproc
 763              	.LFE6:
 764              		.size	App_TaskCMD, .-App_TaskCMD
 765              		.section	.text.main,"ax",%progbits
 766              		.align	2
 767              		.global	main
 768              		.thumb
 769              		.thumb_func
 770              		.type	main, %function
 771              	main:
 772              	.LFB1:
  85:APP/app.c     ****   OS_ERR  os_err;
 773              		.loc 1 85 0
 774              		.cfi_startproc
 775              		@ args = 0, pretend = 0, frame = 8
 776              		@ frame_needed = 0, uses_anonymous_args = 0
 777 0000 30B5     		push	{r4, r5, lr}
 778              		.cfi_def_cfa_offset 12
 779              		.cfi_offset 4, -12
 780              		.cfi_offset 5, -8
 781              		.cfi_offset 14, -4
 782 0002 8DB0     		sub	sp, sp, #52
ARM GAS  C:\Users\filip\AppData\Local\Temp\cc658DaE.s 			page 24


 783              		.cfi_def_cfa_offset 64
  89:APP/app.c     **** 
 784              		.loc 1 89 0
 785 0004 FFF7FEFF 		bl	BSP_PreInit
 786              	.LVL109:
  91:APP/app.c     **** 
 787              		.loc 1 91 0
 788 0008 FFF7FEFF 		bl	CPU_Init
 789              	.LVL110:
  93:APP/app.c     **** 
 790              		.loc 1 93 0
 791 000c 0DF12E05 		add	r5, sp, #46
 792 0010 2846     		mov	r0, r5
 793 0012 FFF7FEFF 		bl	OSInit
 794              	.LVL111:
  95:APP/app.c     ****                (CPU_CHAR    *)"Start",
 795              		.loc 1 95 0
 796 0016 0F48     		ldr	r0, .L59
 797 0018 0895     		str	r5, [sp, #32]
 798 001a 0323     		movs	r3, #3
 799 001c 0793     		str	r3, [sp, #28]
 800 001e 0024     		movs	r4, #0
 801 0020 0694     		str	r4, [sp, #24]
 802 0022 0594     		str	r4, [sp, #20]
 803 0024 0494     		str	r4, [sp, #16]
 804 0026 8023     		movs	r3, #128
 805 0028 0393     		str	r3, [sp, #12]
 806 002a 0C23     		movs	r3, #12
 807 002c 0293     		str	r3, [sp, #8]
 808 002e 00F57063 		add	r3, r0, #3840
 809 0032 0193     		str	r3, [sp, #4]
 810 0034 0223     		movs	r3, #2
 811 0036 0093     		str	r3, [sp]
 812 0038 2346     		mov	r3, r4
 813 003a 074A     		ldr	r2, .L59+4
 814 003c 0749     		ldr	r1, .L59+8
 815 003e 00F56460 		add	r0, r0, #3648
 816 0042 FFF7FEFF 		bl	OSTaskCreate
 817              	.LVL112:
 109:APP/app.c     **** }
 818              		.loc 1 109 0
 819 0046 2846     		mov	r0, r5
 820 0048 FFF7FEFF 		bl	OSStart
 821              	.LVL113:
 110:APP/app.c     **** 
 822              		.loc 1 110 0
 823 004c 2046     		mov	r0, r4
 824 004e 0DB0     		add	sp, sp, #52
 825              		.cfi_def_cfa_offset 12
 826              		@ sp needed
 827 0050 30BD     		pop	{r4, r5, pc}
 828              	.L60:
 829 0052 00BF     		.align	2
 830              	.L59:
 831 0054 00000000 		.word	.LANCHOR0
 832 0058 00000000 		.word	App_TaskStart
 833 005c 5C010000 		.word	.LC14
ARM GAS  C:\Users\filip\AppData\Local\Temp\cc658DaE.s 			page 25


 834              		.cfi_endproc
 835              	.LFE1:
 836              		.size	main, .-main
 837              		.section	.rodata.str1.4,"aMS",%progbits,1
 838              		.align	2
 839              	.LC0:
 840 0000 5461736B 		.ascii	"TaskCMD\000"
 840      434D4400 
 841              	.LC1:
 842 0008 5461736B 		.ascii	"TaskSINE\000"
 842      53494E45 
 842      00
 843 0011 000000   		.space	3
 844              	.LC2:
 845 0014 5461736B 		.ascii	"TaskCOSINE\000"
 845      434F5349 
 845      4E4500
 846 001f 00       		.space	1
 847              	.LC3:
 848 0020 41726775 		.ascii	"Argument of function empty!\012\000"
 848      6D656E74 
 848      206F6620 
 848      66756E63 
 848      74696F6E 
 849 003d 000000   		.space	3
 850              	.LC4:
 851 0040 616C6C00 		.ascii	"all\000"
 852              	.LC5:
 853 0044 434F5349 		.ascii	"COSINE-RES: \000"
 853      4E452D52 
 853      45533A20 
 853      00
 854 0051 000000   		.space	3
 855              	.LC6:
 856 0054 506C6561 		.ascii	"Please use a number between 0 and 360\012\000"
 856      73652075 
 856      73652061 
 856      206E756D 
 856      62657220 
 857 007b 00       		.space	1
 858              	.LC7:
 859 007c 53494E45 		.ascii	"SINE-RES: \000"
 859      2D524553 
 859      3A2000
 860 0087 00       		.space	1
 861              	.LC8:
 862 0088 73696E20 		.ascii	"sin \000"
 862      00
 863 008d 000000   		.space	3
 864              	.LC9:
 865 0090 636F7320 		.ascii	"cos \000"
 865      00
 866 0095 000000   		.space	3
 867              	.LC10:
 868 0098 436F6D6D 		.ascii	"Command not found!\012\012\000"
 868      616E6420 
 868      6E6F7420 
ARM GAS  C:\Users\filip\AppData\Local\Temp\cc658DaE.s 			page 26


 868      666F756E 
 868      64210A0A 
 869 00ad 000000   		.space	3
 870              	.LC11:
 871 00b0 506C6561 		.ascii	"Please use on of the following commands:\012\000"
 871      73652075 
 871      7365206F 
 871      6E206F66 
 871      20746865 
 872 00da 0000     		.space	2
 873              	.LC12:
 874 00dc 092A2920 		.ascii	"\011*) \"sin x\" where x is a number between 0 and "
 874      2273696E 
 874      20782220 
 874      77686572 
 874      65207820 
 875 010a 33363020 		.ascii	"360 or \"sin all\"\012\000"
 875      6F722022 
 875      73696E20 
 875      616C6C22 
 875      0A00
 876              	.LC13:
 877 011c 092A2920 		.ascii	"\011*) \"cos x\" where x is a number between 0 and "
 877      22636F73 
 877      20782220 
 877      77686572 
 877      65207820 
 878 014a 33363020 		.ascii	"360 or \"cos all\"\012\000"
 878      6F722022 
 878      636F7320 
 878      616C6C22 
 878      0A00
 879              	.LC14:
 880 015c 53746172 		.ascii	"Start\000"
 880      7400
 881              		.bss
 882              		.align	2
 883              		.set	.LANCHOR0,. + 0
 884              		.type	App_TaskCMD_TCB, %object
 885              		.size	App_TaskCMD_TCB, 192
 886              	App_TaskCMD_TCB:
 887 0000 00000000 		.space	192
 887      00000000 
 887      00000000 
 887      00000000 
 887      00000000 
 888              		.type	App_TaskCMDStk, %object
 889              		.size	App_TaskCMDStk, 1024
 890              	App_TaskCMDStk:
 891 00c0 00000000 		.space	1024
 891      00000000 
 891      00000000 
 891      00000000 
 891      00000000 
 892              		.type	App_TaskSine_TCB, %object
 893              		.size	App_TaskSine_TCB, 192
 894              	App_TaskSine_TCB:
ARM GAS  C:\Users\filip\AppData\Local\Temp\cc658DaE.s 			page 27


 895 04c0 00000000 		.space	192
 895      00000000 
 895      00000000 
 895      00000000 
 895      00000000 
 896              		.type	App_TaskSineStk, %object
 897              		.size	App_TaskSineStk, 1024
 898              	App_TaskSineStk:
 899 0580 00000000 		.space	1024
 899      00000000 
 899      00000000 
 899      00000000 
 899      00000000 
 900              		.type	App_TaskCosine_TCB, %object
 901              		.size	App_TaskCosine_TCB, 192
 902              	App_TaskCosine_TCB:
 903 0980 00000000 		.space	192
 903      00000000 
 903      00000000 
 903      00000000 
 903      00000000 
 904              		.type	App_TaskCosineStk, %object
 905              		.size	App_TaskCosineStk, 1024
 906              	App_TaskCosineStk:
 907 0a40 00000000 		.space	1024
 907      00000000 
 907      00000000 
 907      00000000 
 907      00000000 
 908              		.type	App_TaskStartTCB, %object
 909              		.size	App_TaskStartTCB, 192
 910              	App_TaskStartTCB:
 911 0e40 00000000 		.space	192
 911      00000000 
 911      00000000 
 911      00000000 
 911      00000000 
 912              		.type	App_TaskStartStk, %object
 913              		.size	App_TaskStartStk, 512
 914              	App_TaskStartStk:
 915 0f00 00000000 		.space	512
 915      00000000 
 915      00000000 
 915      00000000 
 915      00000000 
 916              		.text
 917              	.Letext0:
 918              		.file 2 ".\\uC-CPU\\ARM-Cortex-M3\\GNU/cpu.h"
 919              		.file 3 ".\\uC-CPU/cpu_core.h"
 920              		.file 4 ".\\uCOS-III\\Source/os_type.h"
 921              		.file 5 ".\\uCOS-III\\Source/os.h"
 922              		.file 6 "./bsp_uart.h"
 923              		.file 7 ".\\BSP/bsp.h"
 924              		.file 8 "c:\\program files (x86)\\cypress\\psoc creator\\4.2\\psoc creator\\import\\gnu\\arm\\5.4.
 925              		.file 9 "c:\\program files (x86)\\cypress\\psoc creator\\4.2\\psoc creator\\import\\gnu\\arm\\5.4.
 926              		.file 10 "c:\\program files (x86)\\cypress\\psoc creator\\4.2\\psoc creator\\import\\gnu\\arm\\5.4