ARM GAS  C:\Users\filip\AppData\Local\Temp\ccSUMwAb.s 			page 1


   1              		.syntax unified
   2              		.cpu cortex-m3
   3              		.fpu softvfp
   4              		.eabi_attribute 20, 1
   5              		.eabi_attribute 21, 1
   6              		.eabi_attribute 23, 3
   7              		.eabi_attribute 24, 1
   8              		.eabi_attribute 25, 1
   9              		.eabi_attribute 26, 1
  10              		.eabi_attribute 30, 1
  11              		.eabi_attribute 34, 1
  12              		.eabi_attribute 18, 4
  13              		.thumb
  14              		.syntax unified
  15              		.file	"bsp.c"
  16              		.text
  17              	.Ltext0:
  18              		.cfi_sections	.debug_frame
  19              		.section	.text.BSP_PreInit,"ax",%progbits
  20              		.align	2
  21              		.global	BSP_PreInit
  22              		.thumb
  23              		.thumb_func
  24              		.type	BSP_PreInit, %function
  25              	BSP_PreInit:
  26              	.LFB1:
  27              		.file 1 "BSP\\bsp.c"
   1:BSP/bsp.c     **** /*
   2:BSP/bsp.c     **** ***************************************************************************************************
   3:BSP/bsp.c     **** *                                     MICIRUM BOARD SUPPORT PACKAGE
   4:BSP/bsp.c     **** *
   5:BSP/bsp.c     **** *                             (c) Copyright 2012; Micrium, Inc.; Weston, FL
   6:BSP/bsp.c     **** *
   7:BSP/bsp.c     **** *               All rights reserved.  Protected by international copyright laws.
   8:BSP/bsp.c     **** *               Knowledge of the source code may NOT be used to develop a similar product.
   9:BSP/bsp.c     **** *               Please help us continue to provide the Embedded community with the finest
  10:BSP/bsp.c     **** *               software available.  Your honesty is greatly appreciated.
  11:BSP/bsp.c     **** ***************************************************************************************************
  12:BSP/bsp.c     **** */
  13:BSP/bsp.c     **** 
  14:BSP/bsp.c     **** /*
  15:BSP/bsp.c     **** ***************************************************************************************************
  16:BSP/bsp.c     **** *
  17:BSP/bsp.c     **** *                                        BOARD SUPPORT PACKAGE
  18:BSP/bsp.c     **** *
  19:BSP/bsp.c     **** *                                           CYPRESS PSoC5
  20:BSP/bsp.c     **** *                                              with the
  21:BSP/bsp.c     **** *                                     CY8CKIT-050 Development Kit
  22:BSP/bsp.c     **** *
  23:BSP/bsp.c     **** * Filename      : bsp.c
  24:BSP/bsp.c     **** * Version       : V1.01
  25:BSP/bsp.c     **** * Programmer(s) : Filip Wagner
  26:BSP/bsp.c     **** ***************************************************************************************************
  27:BSP/bsp.c     **** */
  28:BSP/bsp.c     **** 
  29:BSP/bsp.c     **** /*
  30:BSP/bsp.c     **** ***************************************************************************************************
ARM GAS  C:\Users\filip\AppData\Local\Temp\ccSUMwAb.s 			page 2


  31:BSP/bsp.c     **** *                                             INCLUDE FILES
  32:BSP/bsp.c     **** ***************************************************************************************************
  33:BSP/bsp.c     **** */
  34:BSP/bsp.c     **** 
  35:BSP/bsp.c     **** #include <cyapicallbacks.h>
  36:BSP/bsp.c     **** 
  37:BSP/bsp.c     **** #define  BSP_MODULE
  38:BSP/bsp.c     **** #include <bsp.h>
  39:BSP/bsp.c     **** #include <bsp_psoc.h>
  40:BSP/bsp.c     **** 
  41:BSP/bsp.c     **** #include <bsp_uart.h>
  42:BSP/bsp.c     **** #include <bsp_gpio.h>
  43:BSP/bsp.c     **** 
  44:BSP/bsp.c     **** 
  45:BSP/bsp.c     **** /*
  46:BSP/bsp.c     **** ***************************************************************************************************
  47:BSP/bsp.c     **** *                                            LOCAL DEFINES
  48:BSP/bsp.c     **** ***************************************************************************************************
  49:BSP/bsp.c     **** */
  50:BSP/bsp.c     **** 
  51:BSP/bsp.c     **** 
  52:BSP/bsp.c     **** /*
  53:BSP/bsp.c     **** ***************************************************************************************************
  54:BSP/bsp.c     **** *                                           LOCAL CONSTANTS
  55:BSP/bsp.c     **** ***************************************************************************************************
  56:BSP/bsp.c     **** */
  57:BSP/bsp.c     ****                                                                   
  58:BSP/bsp.c     **** 
  59:BSP/bsp.c     **** /*
  60:BSP/bsp.c     **** ***************************************************************************************************
  61:BSP/bsp.c     **** *                                          LOCAL DATA TYPES
  62:BSP/bsp.c     **** ***************************************************************************************************
  63:BSP/bsp.c     **** */
  64:BSP/bsp.c     **** 
  65:BSP/bsp.c     **** 
  66:BSP/bsp.c     **** /*
  67:BSP/bsp.c     **** ***************************************************************************************************
  68:BSP/bsp.c     **** *                                            LOCAL TABLES
  69:BSP/bsp.c     **** ***************************************************************************************************
  70:BSP/bsp.c     **** */
  71:BSP/bsp.c     **** 
  72:BSP/bsp.c     **** 
  73:BSP/bsp.c     **** /*
  74:BSP/bsp.c     **** ***************************************************************************************************
  75:BSP/bsp.c     **** *                                       LOCAL GLOBAL VARIABLES
  76:BSP/bsp.c     **** ***************************************************************************************************
  77:BSP/bsp.c     **** */
  78:BSP/bsp.c     **** 
  79:BSP/bsp.c     **** 
  80:BSP/bsp.c     **** /*
  81:BSP/bsp.c     **** ***************************************************************************************************
  82:BSP/bsp.c     **** *                                      LOCAL FUNCTION PROTOTYPES
  83:BSP/bsp.c     **** ***************************************************************************************************
  84:BSP/bsp.c     **** */
  85:BSP/bsp.c     **** 
  86:BSP/bsp.c     **** 
  87:BSP/bsp.c     **** /*
ARM GAS  C:\Users\filip\AppData\Local\Temp\ccSUMwAb.s 			page 3


  88:BSP/bsp.c     **** ***************************************************************************************************
  89:BSP/bsp.c     **** *                                            REGISTER BITS
  90:BSP/bsp.c     **** ***************************************************************************************************
  91:BSP/bsp.c     **** */
  92:BSP/bsp.c     **** 
  93:BSP/bsp.c     **** 
  94:BSP/bsp.c     **** /*
  95:BSP/bsp.c     **** ***************************************************************************************************
  96:BSP/bsp.c     **** *                                     LOCAL CONFIGURATION ERRORS
  97:BSP/bsp.c     **** ***************************************************************************************************
  98:BSP/bsp.c     **** */
  99:BSP/bsp.c     **** 
 100:BSP/bsp.c     **** 
 101:BSP/bsp.c     **** /*
 102:BSP/bsp.c     **** ***************************************************************************************************
 103:BSP/bsp.c     **** *                                             BSP_PreInit()
 104:BSP/bsp.c     **** *
 105:BSP/bsp.c     **** * Description : Board support package pre-initialization funtion.
 106:BSP/bsp.c     **** *
 107:BSP/bsp.c     **** * Argument(s) : none.
 108:BSP/bsp.c     **** *
 109:BSP/bsp.c     **** * Return(s)   : none.
 110:BSP/bsp.c     **** *
 111:BSP/bsp.c     **** * Caller(s)   : Application.
 112:BSP/bsp.c     **** *
 113:BSP/bsp.c     **** * Note(s)     : (1) This funtion initializes peripherals required before the OS is initialized (e.g
 114:BSP/bsp.c     **** *                   external memory.
 115:BSP/bsp.c     **** ***************************************************************************************************
 116:BSP/bsp.c     **** */
 117:BSP/bsp.c     **** 
 118:BSP/bsp.c     **** 
 119:BSP/bsp.c     **** void BSP_PreInit (void)
 120:BSP/bsp.c     **** {
  28              		.loc 1 120 0
  29              		.cfi_startproc
  30              		@ args = 0, pretend = 0, frame = 0
  31              		@ frame_needed = 0, uses_anonymous_args = 0
  32              		@ link register save eliminated.
 121:BSP/bsp.c     ****     CPU_INT32U  reg_val;
 122:BSP/bsp.c     ****     CPU_INT32U *p_vect_tbl;
 123:BSP/bsp.c     ****     
 124:BSP/bsp.c     ****     
 125:BSP/bsp.c     ****     reg_val = CPU_REG_NVIC_VTOR;                                   /* Get the NVIC offset table    
  33              		.loc 1 125 0
  34 0000 044B     		ldr	r3, .L2
  35 0002 1B68     		ldr	r3, [r3]
  36              	.LVL0:
 126:BSP/bsp.c     ****     DEF_BIT_CLR(reg_val, DEF_BIT_29);                              /* Clear the TBLBASE bit        
  37              		.loc 1 126 0
  38 0004 23F00053 		bic	r3, r3, #536870912
  39              	.LVL1:
 127:BSP/bsp.c     ****     
 128:BSP/bsp.c     ****      
 129:BSP/bsp.c     ****     p_vect_tbl                  = (CPU_INT32U *)reg_val;           
 130:BSP/bsp.c     ****                                                                    /* Install the PendSV & Systick 
 131:BSP/bsp.c     ****     p_vect_tbl[CPU_INT_PENDSV]  = (CPU_INT32U  )OS_CPU_PendSVHandler;
  40              		.loc 1 131 0
ARM GAS  C:\Users\filip\AppData\Local\Temp\ccSUMwAb.s 			page 4


  41 0008 034A     		ldr	r2, .L2+4
  42 000a 9A63     		str	r2, [r3, #56]
 132:BSP/bsp.c     ****     p_vect_tbl[CPU_INT_SYSTICK] = (CPU_INT32U  )OS_CPU_SysTickHandler;
  43              		.loc 1 132 0
  44 000c 034A     		ldr	r2, .L2+8
  45 000e DA63     		str	r2, [r3, #60]
  46 0010 7047     		bx	lr
  47              	.L3:
  48 0012 00BF     		.align	2
  49              	.L2:
  50 0014 08ED00E0 		.word	-536810232
  51 0018 00000000 		.word	OS_CPU_PendSVHandler
  52 001c 00000000 		.word	OS_CPU_SysTickHandler
  53              		.cfi_endproc
  54              	.LFE1:
  55              		.size	BSP_PreInit, .-BSP_PreInit
  56              		.section	.text.BSP_PostInit,"ax",%progbits
  57              		.align	2
  58              		.global	BSP_PostInit
  59              		.thumb
  60              		.thumb_func
  61              		.type	BSP_PostInit, %function
  62              	BSP_PostInit:
  63              	.LFB2:
 133:BSP/bsp.c     **** }
 134:BSP/bsp.c     **** 
 135:BSP/bsp.c     **** 
 136:BSP/bsp.c     **** /*
 137:BSP/bsp.c     **** ***************************************************************************************************
 138:BSP/bsp.c     **** *                                               BSP_PostInit()
 139:BSP/bsp.c     **** *
 140:BSP/bsp.c     **** * Description : Board Support Package Post initialization.
 141:BSP/bsp.c     **** *
 142:BSP/bsp.c     **** * Argument(s) : none.
 143:BSP/bsp.c     **** *
 144:BSP/bsp.c     **** * Return(s)   : none.
 145:BSP/bsp.c     **** *
 146:BSP/bsp.c     **** * Caller(s)   : Application.
 147:BSP/bsp.c     **** *
 148:BSP/bsp.c     **** * Note(s)     : (1) This funtion initilize peripherlas that requires the OS to be initialized.
 149:BSP/bsp.c     **** ***************************************************************************************************
 150:BSP/bsp.c     **** */
 151:BSP/bsp.c     **** 
 152:BSP/bsp.c     **** void  BSP_PostInit (void)
 153:BSP/bsp.c     **** {
  64              		.loc 1 153 0
  65              		.cfi_startproc
  66              		@ args = 0, pretend = 0, frame = 0
  67              		@ frame_needed = 0, uses_anonymous_args = 0
  68 0000 08B5     		push	{r3, lr}
  69              		.cfi_def_cfa_offset 8
  70              		.cfi_offset 3, -8
  71              		.cfi_offset 14, -4
 154:BSP/bsp.c     ****     init_gpio();
  72              		.loc 1 154 0
  73 0002 FFF7FEFF 		bl	init_gpio
  74              	.LVL2:
ARM GAS  C:\Users\filip\AppData\Local\Temp\ccSUMwAb.s 			page 5


 155:BSP/bsp.c     ****     init_uart();
  75              		.loc 1 155 0
  76 0006 FFF7FEFF 		bl	init_uart
  77              	.LVL3:
  78 000a 08BD     		pop	{r3, pc}
  79              		.cfi_endproc
  80              	.LFE2:
  81              		.size	BSP_PostInit, .-BSP_PostInit
  82              		.section	.text.BSP_CPU_ClkFreq,"ax",%progbits
  83              		.align	2
  84              		.global	BSP_CPU_ClkFreq
  85              		.thumb
  86              		.thumb_func
  87              		.type	BSP_CPU_ClkFreq, %function
  88              	BSP_CPU_ClkFreq:
  89              	.LFB4:
 156:BSP/bsp.c     **** }
 157:BSP/bsp.c     **** 
 158:BSP/bsp.c     **** 
 159:BSP/bsp.c     **** /*
 160:BSP/bsp.c     **** ***************************************************************************************************
 161:BSP/bsp.c     **** *                                       BSP_CPU_TickInit()
 162:BSP/bsp.c     **** *
 163:BSP/bsp.c     **** * Description : This function reads CPU registers to determine the CPU clock frequency of the chip 
 164:BSP/bsp.c     **** *
 165:BSP/bsp.c     **** * Argument(s) : none.
 166:BSP/bsp.c     **** *
 167:BSP/bsp.c     **** * Return(s)   : none.
 168:BSP/bsp.c     **** *
 169:BSP/bsp.c     **** * Caller(s)   : Application.
 170:BSP/bsp.c     **** *
 171:BSP/bsp.c     **** * Note(s)     : none.
 172:BSP/bsp.c     **** ***************************************************************************************************
 173:BSP/bsp.c     **** */
 174:BSP/bsp.c     **** void  BSP_CPU_TickInit  (void)
 175:BSP/bsp.c     **** {
 176:BSP/bsp.c     ****     CPU_INT32U   cpu_clk_freq;
 177:BSP/bsp.c     ****     CPU_INT32U   cnts;
 178:BSP/bsp.c     ****     
 179:BSP/bsp.c     ****     cpu_clk_freq = BSP_CPU_ClkFreq();                             /* Determine SysTick reference fr
 180:BSP/bsp.c     **** #if (OS_VERSION > 30000u)                                         /* Determine nbr SysTick incremen
 181:BSP/bsp.c     ****     cnts         = (cpu_clk_freq / OSCfg_TickRate_Hz);
 182:BSP/bsp.c     **** #else
 183:BSP/bsp.c     ****     cnts         = (cpu_clk_freq / OS_TICKS_PER_SEC);
 184:BSP/bsp.c     **** #endif
 185:BSP/bsp.c     ****     OS_CPU_SysTickInit(cnts);                                     /* Init uC/OS periodic time src (
 186:BSP/bsp.c     ****     
 187:BSP/bsp.c     **** }
 188:BSP/bsp.c     **** 
 189:BSP/bsp.c     **** /*
 190:BSP/bsp.c     **** ***************************************************************************************************
 191:BSP/bsp.c     **** *                                            BSP_CPU_ClkFreq()
 192:BSP/bsp.c     **** *
 193:BSP/bsp.c     **** * Description : Read CPU registers to determine the CPU clock frequency of the chip.
 194:BSP/bsp.c     **** *
 195:BSP/bsp.c     **** * Argument(s) : none.
 196:BSP/bsp.c     **** *
ARM GAS  C:\Users\filip\AppData\Local\Temp\ccSUMwAb.s 			page 6


 197:BSP/bsp.c     **** * Return(s)   : The CPU clock frequency, in Hz.
 198:BSP/bsp.c     **** *
 199:BSP/bsp.c     **** * Caller(s)   : Application.
 200:BSP/bsp.c     **** *
 201:BSP/bsp.c     **** * Note(s)     : none.
 202:BSP/bsp.c     **** ***************************************************************************************************
 203:BSP/bsp.c     **** */
 204:BSP/bsp.c     **** 
 205:BSP/bsp.c     **** CPU_INT32U  BSP_CPU_ClkFreq (void)
 206:BSP/bsp.c     **** {
  90              		.loc 1 206 0
  91              		.cfi_startproc
  92              		@ args = 0, pretend = 0, frame = 0
  93              		@ frame_needed = 0, uses_anonymous_args = 0
  94              		@ link register save eliminated.
 207:BSP/bsp.c     ****     return ((CPU_INT32U)BSP_PSOC_CPU_FREQ);
 208:BSP/bsp.c     **** }
  95              		.loc 1 208 0
  96 0000 0048     		ldr	r0, .L7
  97 0002 7047     		bx	lr
  98              	.L8:
  99              		.align	2
 100              	.L7:
 101 0004 00366E01 		.word	24000000
 102              		.cfi_endproc
 103              	.LFE4:
 104              		.size	BSP_CPU_ClkFreq, .-BSP_CPU_ClkFreq
 105              		.section	.text.BSP_CPU_TickInit,"ax",%progbits
 106              		.align	2
 107              		.global	BSP_CPU_TickInit
 108              		.thumb
 109              		.thumb_func
 110              		.type	BSP_CPU_TickInit, %function
 111              	BSP_CPU_TickInit:
 112              	.LFB3:
 175:BSP/bsp.c     ****     CPU_INT32U   cpu_clk_freq;
 113              		.loc 1 175 0
 114              		.cfi_startproc
 115              		@ args = 0, pretend = 0, frame = 0
 116              		@ frame_needed = 0, uses_anonymous_args = 0
 117 0000 08B5     		push	{r3, lr}
 118              		.cfi_def_cfa_offset 8
 119              		.cfi_offset 3, -8
 120              		.cfi_offset 14, -4
 179:BSP/bsp.c     **** #if (OS_VERSION > 30000u)                                         /* Determine nbr SysTick incremen
 121              		.loc 1 179 0
 122 0002 FFF7FEFF 		bl	BSP_CPU_ClkFreq
 123              	.LVL4:
 181:BSP/bsp.c     **** #else
 124              		.loc 1 181 0
 125 0006 034B     		ldr	r3, .L11
 126 0008 1B68     		ldr	r3, [r3]
 127              	.LVL5:
 185:BSP/bsp.c     ****     
 128              		.loc 1 185 0
 129 000a B0FBF3F0 		udiv	r0, r0, r3
 130              	.LVL6:
ARM GAS  C:\Users\filip\AppData\Local\Temp\ccSUMwAb.s 			page 7


 131 000e FFF7FEFF 		bl	OS_CPU_SysTickInit
 132              	.LVL7:
 133 0012 08BD     		pop	{r3, pc}
 134              	.L12:
 135              		.align	2
 136              	.L11:
 137 0014 00000000 		.word	OSCfg_TickRate_Hz
 138              		.cfi_endproc
 139              	.LFE3:
 140              		.size	BSP_CPU_TickInit, .-BSP_CPU_TickInit
 141              		.section	.text.BSP_STR_ISBLANC,"ax",%progbits
 142              		.align	2
 143              		.global	BSP_STR_ISBLANC
 144              		.thumb
 145              		.thumb_func
 146              		.type	BSP_STR_ISBLANC, %function
 147              	BSP_STR_ISBLANC:
 148              	.LFB5:
 209:BSP/bsp.c     **** 
 210:BSP/bsp.c     **** 
 211:BSP/bsp.c     **** /*
 212:BSP/bsp.c     **** ***************************************************************************************************
 213:BSP/bsp.c     **** ***************************************************************************************************
 214:BSP/bsp.c     **** *                                             STRING FUNCTIONS
 215:BSP/bsp.c     **** ***************************************************************************************************
 216:BSP/bsp.c     **** ***************************************************************************************************
 217:BSP/bsp.c     **** */
 218:BSP/bsp.c     **** 
 219:BSP/bsp.c     **** 
 220:BSP/bsp.c     **** /*
 221:BSP/bsp.c     **** ***************************************************************************************************
 222:BSP/bsp.c     **** *                                        BSP_STR_ISBLANC()
 223:BSP/bsp.c     **** *
 224:BSP/bsp.c     **** * Description : determinate if given string contains within the first p characters
 225:BSP/bsp.c     **** *               only blanc characters
 226:BSP/bsp.c     **** *
 227:BSP/bsp.c     **** * Argument(s) : s     the string
 228:BSP/bsp.c     **** *               p     number of characters
 229:BSP/bsp.c     **** *
 230:BSP/bsp.c     **** * Return(s)   : DEF_TRUE    If the first p characters contains only blanc character
 231:BSP/bsp.c     **** *               DEF_FALSE   If the first p characters contains a non blanc character
 232:BSP/bsp.c     **** *
 233:BSP/bsp.c     **** * Caller(s)   : application
 234:BSP/bsp.c     **** *
 235:BSP/bsp.c     **** * Note(s)     : none.
 236:BSP/bsp.c     **** ***************************************************************************************************
 237:BSP/bsp.c     **** */
 238:BSP/bsp.c     **** 
 239:BSP/bsp.c     **** CPU_BOOLEAN BSP_STR_ISBLANC(char s[], int p) {
 149              		.loc 1 239 0
 150              		.cfi_startproc
 151              		@ args = 0, pretend = 0, frame = 0
 152              		@ frame_needed = 0, uses_anonymous_args = 0
 153              		@ link register save eliminated.
 154              	.LVL8:
 155 0000 10B4     		push	{r4}
 156              		.cfi_def_cfa_offset 4
ARM GAS  C:\Users\filip\AppData\Local\Temp\ccSUMwAb.s 			page 8


 157              		.cfi_offset 4, -4
 158              	.LVL9:
 240:BSP/bsp.c     ****   int i = 0;
 159              		.loc 1 240 0
 160 0002 0023     		movs	r3, #0
 241:BSP/bsp.c     ****   
 242:BSP/bsp.c     ****   while (i < p) {
 161              		.loc 1 242 0
 162 0004 10E0     		b	.L14
 163              	.LVL10:
 164              	.L17:
 165              	.LBB2:
 243:BSP/bsp.c     ****     if (!isblank(s[i])) {
 166              		.loc 1 243 0
 167 0006 C45C     		ldrb	r4, [r0, r3]	@ zero_extendqisi2
 168              	.LVL11:
 169 0008 0B4A     		ldr	r2, .L22
 170 000a 1268     		ldr	r2, [r2]
 171 000c 2244     		add	r2, r2, r4
 172 000e 92F90120 		ldrsb	r2, [r2, #1]
 173 0012 002A     		cmp	r2, #0
 174 0014 03DB     		blt	.L18
 175              		.loc 1 243 0 is_stmt 0 discriminator 2
 176 0016 092C     		cmp	r4, #9
 177 0018 03D1     		bne	.L19
 178              		.loc 1 243 0
 179 001a 0122     		movs	r2, #1
 180 001c 02E0     		b	.L15
 181              	.L18:
 182 001e 0122     		movs	r2, #1
 183 0020 00E0     		b	.L15
 184              	.L19:
 185 0022 0022     		movs	r2, #0
 186              	.L15:
 187              	.LBE2:
 188              		.loc 1 243 0 discriminator 6
 189 0024 22B1     		cbz	r2, .L20
 244:BSP/bsp.c     ****       return DEF_FALSE;
 245:BSP/bsp.c     ****     }
 246:BSP/bsp.c     ****     i++;
 190              		.loc 1 246 0 is_stmt 1
 191 0026 0133     		adds	r3, r3, #1
 192              	.LVL12:
 193              	.L14:
 242:BSP/bsp.c     ****     if (!isblank(s[i])) {
 194              		.loc 1 242 0
 195 0028 8B42     		cmp	r3, r1
 196 002a ECDB     		blt	.L17
 247:BSP/bsp.c     ****   }
 248:BSP/bsp.c     ****   return DEF_TRUE;
 197              		.loc 1 248 0
 198 002c 0120     		movs	r0, #1
 199              	.LVL13:
 200 002e 00E0     		b	.L16
 201              	.LVL14:
 202              	.L20:
 244:BSP/bsp.c     ****     }
ARM GAS  C:\Users\filip\AppData\Local\Temp\ccSUMwAb.s 			page 9


 203              		.loc 1 244 0
 204 0030 0020     		movs	r0, #0
 205              	.LVL15:
 206              	.L16:
 249:BSP/bsp.c     **** }
 207              		.loc 1 249 0
 208 0032 10BC     		pop	{r4}
 209              		.cfi_restore 4
 210              		.cfi_def_cfa_offset 0
 211 0034 7047     		bx	lr
 212              	.L23:
 213 0036 00BF     		.align	2
 214              	.L22:
 215 0038 00000000 		.word	__ctype_ptr__
 216              		.cfi_endproc
 217              	.LFE5:
 218              		.size	BSP_STR_ISBLANC, .-BSP_STR_ISBLANC
 219              		.section	.text.BSP_STR_ISNUMBER,"ax",%progbits
 220              		.align	2
 221              		.global	BSP_STR_ISNUMBER
 222              		.thumb
 223              		.thumb_func
 224              		.type	BSP_STR_ISNUMBER, %function
 225              	BSP_STR_ISNUMBER:
 226              	.LFB6:
 250:BSP/bsp.c     **** 
 251:BSP/bsp.c     **** /*
 252:BSP/bsp.c     **** ***************************************************************************************************
 253:BSP/bsp.c     **** *                                  BSP_STR_ISNUMBER()
 254:BSP/bsp.c     **** *
 255:BSP/bsp.c     **** * Description : determinate if given string contains within the first p characters
 256:BSP/bsp.c     **** *               only numeric characters
 257:BSP/bsp.c     **** *
 258:BSP/bsp.c     **** * Argument(s) : s     the string
 259:BSP/bsp.c     **** *               p     number of characters
 260:BSP/bsp.c     **** *
 261:BSP/bsp.c     **** * Return(s)   : DEF_TRUE    If the first p characters contains only numeric character
 262:BSP/bsp.c     **** *               DEF_FALSE   If the first p characters contains a non numeric character
 263:BSP/bsp.c     **** *
 264:BSP/bsp.c     **** * Caller(s)   : application
 265:BSP/bsp.c     **** *
 266:BSP/bsp.c     **** * Note(s)     : none.
 267:BSP/bsp.c     **** ***************************************************************************************************
 268:BSP/bsp.c     **** */
 269:BSP/bsp.c     **** 
 270:BSP/bsp.c     **** CPU_BOOLEAN BSP_STR_ISNUMBER(char s[], int p)
 271:BSP/bsp.c     **** {
 227              		.loc 1 271 0
 228              		.cfi_startproc
 229              		@ args = 0, pretend = 0, frame = 0
 230              		@ frame_needed = 0, uses_anonymous_args = 0
 231              		@ link register save eliminated.
 232              	.LVL16:
 233 0000 10B4     		push	{r4}
 234              		.cfi_def_cfa_offset 4
 235              		.cfi_offset 4, -4
 236              	.LVL17:
ARM GAS  C:\Users\filip\AppData\Local\Temp\ccSUMwAb.s 			page 10


 272:BSP/bsp.c     ****   int i = 0;
 237              		.loc 1 272 0
 238 0002 0023     		movs	r3, #0
 273:BSP/bsp.c     ****   
 274:BSP/bsp.c     ****   while (i < p) {
 239              		.loc 1 274 0
 240 0004 08E0     		b	.L25
 241              	.LVL18:
 242              	.L27:
 275:BSP/bsp.c     ****     if (isdigit(s[i]) == 0) {
 243              		.loc 1 275 0
 244 0006 C25C     		ldrb	r2, [r0, r3]	@ zero_extendqisi2
 245 0008 074C     		ldr	r4, .L30
 246 000a 2468     		ldr	r4, [r4]
 247 000c 2244     		add	r2, r2, r4
 248 000e 5278     		ldrb	r2, [r2, #1]	@ zero_extendqisi2
 249 0010 12F0040F 		tst	r2, #4
 250 0014 04D0     		beq	.L28
 276:BSP/bsp.c     ****       return DEF_FALSE;
 277:BSP/bsp.c     ****     }
 278:BSP/bsp.c     ****     i++;
 251              		.loc 1 278 0
 252 0016 0133     		adds	r3, r3, #1
 253              	.LVL19:
 254              	.L25:
 274:BSP/bsp.c     ****     if (isdigit(s[i]) == 0) {
 255              		.loc 1 274 0
 256 0018 8B42     		cmp	r3, r1
 257 001a F4DB     		blt	.L27
 279:BSP/bsp.c     ****   }
 280:BSP/bsp.c     ****   return DEF_TRUE;
 258              		.loc 1 280 0
 259 001c 0120     		movs	r0, #1
 260              	.LVL20:
 261 001e 00E0     		b	.L26
 262              	.LVL21:
 263              	.L28:
 276:BSP/bsp.c     ****     }
 264              		.loc 1 276 0
 265 0020 0020     		movs	r0, #0
 266              	.LVL22:
 267              	.L26:
 281:BSP/bsp.c     **** }
 268              		.loc 1 281 0
 269 0022 10BC     		pop	{r4}
 270              		.cfi_restore 4
 271              		.cfi_def_cfa_offset 0
 272 0024 7047     		bx	lr
 273              	.L31:
 274 0026 00BF     		.align	2
 275              	.L30:
 276 0028 00000000 		.word	__ctype_ptr__
 277              		.cfi_endproc
 278              	.LFE6:
 279              		.size	BSP_STR_ISNUMBER, .-BSP_STR_ISNUMBER
 280              		.text
 281              	.Letext0:
ARM GAS  C:\Users\filip\AppData\Local\Temp\ccSUMwAb.s 			page 11


 282              		.file 2 ".\\uC-CPU\\ARM-Cortex-M3\\GNU/cpu.h"
 283              		.file 3 ".\\uCOS-III\\Source/os_type.h"
 284              		.file 4 "./bsp_uart.h"
 285              		.file 5 ".\\uCOS-III\\Source/os.h"
 286              		.file 6 "c:\\program files (x86)\\cypress\\psoc creator\\4.2\\psoc creator\\import\\gnu\\arm\\5.4.
 287              		.file 7 "./bsp_gpio.h"
 288              		.file 8 ".\\uCOS-III\\Ports\\ARM-Cortex-M3\\Generic\\GNU/os_cpu.h"