ARM GAS  C:\Users\filip\AppData\Local\Temp\ccltlJHz.s 			page 1


   1              		.syntax unified
   2              		.cpu cortex-m3
   3              		.fpu softvfp
   4              		.eabi_attribute 20, 1
   5              		.eabi_attribute 21, 1
   6              		.eabi_attribute 23, 3
   7              		.eabi_attribute 24, 1
   8              		.eabi_attribute 25, 1
   9              		.eabi_attribute 26, 1
  10              		.eabi_attribute 30, 1
  11              		.eabi_attribute 34, 1
  12              		.eabi_attribute 18, 4
  13              		.thumb
  14              		.syntax unified
  15              		.file	"bsp_gpio.c"
  16              		.text
  17              	.Ltext0:
  18              		.cfi_sections	.debug_frame
  19              		.section	.text.init_gpio,"ax",%progbits
  20              		.align	2
  21              		.global	init_gpio
  22              		.thumb
  23              		.thumb_func
  24              		.type	init_gpio, %function
  25              	init_gpio:
  26              	.LFB0:
  27              		.file 1 "bsp_gpio.c"
   1:bsp_gpio.c    **** /* ========================================
   2:bsp_gpio.c    ****  *
   3:bsp_gpio.c    ****  * Copyright YOUR COMPANY, THE YEAR
   4:bsp_gpio.c    ****  * All Rights Reserved
   5:bsp_gpio.c    ****  * UNPUBLISHED, LICENSED SOFTWARE.
   6:bsp_gpio.c    ****  *
   7:bsp_gpio.c    ****  * CONFIDENTIAL AND PROPRIETARY INFORMATION
   8:bsp_gpio.c    ****  * WHICH IS THE PROPERTY OF your company.
   9:bsp_gpio.c    ****  *
  10:bsp_gpio.c    ****  * ========================================
  11:bsp_gpio.c    **** */
  12:bsp_gpio.c    **** 
  13:bsp_gpio.c    **** #include <bsp_gpio.h>
  14:bsp_gpio.c    **** 
  15:bsp_gpio.c    **** /*
  16:bsp_gpio.c    **** ***************************************************************************************************
  17:bsp_gpio.c    **** *                                       init_gpio()
  18:bsp_gpio.c    **** *
  19:bsp_gpio.c    **** * Description : This function initializes the Pin_1 GPIO module (P1_6, J1 Pin 23), the
  20:bsp_gpio.c    **** *               Pin_2 GPIO module (P2_0, J1 Pin 1 and P2_1, J1 Pin 2) and the push button
  21:bsp_gpio.c    **** *               GPIO module (P2_2, J1 Pin 3). On P2_1 a blue on-board LED is connected. On
  22:bsp_gpio.c    **** *               P2_2 on side of a GND-connected button is connected.
  23:bsp_gpio.c    **** *
  24:bsp_gpio.c    **** * Argument(s) : none.
  25:bsp_gpio.c    **** *
  26:bsp_gpio.c    **** * Return(s)   : none.
  27:bsp_gpio.c    **** *
  28:bsp_gpio.c    **** * Caller(s)   : Application.
  29:bsp_gpio.c    **** *
  30:bsp_gpio.c    **** * Note(s)     : Not re-entrant.
ARM GAS  C:\Users\filip\AppData\Local\Temp\ccltlJHz.s 			page 2


  31:bsp_gpio.c    **** ***************************************************************************************************
  32:bsp_gpio.c    **** */
  33:bsp_gpio.c    **** 
  34:bsp_gpio.c    **** CPU_VOID init_gpio(CPU_VOID)
  35:bsp_gpio.c    **** {
  28              		.loc 1 35 0
  29              		.cfi_startproc
  30              		@ args = 0, pretend = 0, frame = 0
  31              		@ frame_needed = 0, uses_anonymous_args = 0
  32 0000 08B5     		push	{r3, lr}
  33              		.cfi_def_cfa_offset 8
  34              		.cfi_offset 3, -8
  35              		.cfi_offset 14, -4
  36:bsp_gpio.c    ****   Pin_1_SetDriveMode(Pin_1_DM_STRONG);
  36              		.loc 1 36 0
  37 0002 0C20     		movs	r0, #12
  38 0004 FFF7FEFF 		bl	Pin_1_SetDriveMode
  39              	.LVL0:
  37:bsp_gpio.c    ****   Pin_2_SetDriveMode(Pin_2_DM_STRONG);
  40              		.loc 1 37 0
  41 0008 0C20     		movs	r0, #12
  42 000a FFF7FEFF 		bl	Pin_2_SetDriveMode
  43              	.LVL1:
  38:bsp_gpio.c    ****   push_button_SetDriveMode(push_button_DM_STRONG);
  44              		.loc 1 38 0
  45 000e 0C20     		movs	r0, #12
  46 0010 FFF7FEFF 		bl	push_button_SetDriveMode
  47              	.LVL2:
  39:bsp_gpio.c    ****   push_button_Write(1);
  48              		.loc 1 39 0
  49 0014 0120     		movs	r0, #1
  50 0016 FFF7FEFF 		bl	push_button_Write
  51              	.LVL3:
  52 001a 08BD     		pop	{r3, pc}
  53              		.cfi_endproc
  54              	.LFE0:
  55              		.size	init_gpio, .-init_gpio
  56              		.section	.text.gpio_high,"ax",%progbits
  57              		.align	2
  58              		.global	gpio_high
  59              		.thumb
  60              		.thumb_func
  61              		.type	gpio_high, %function
  62              	gpio_high:
  63              	.LFB1:
  40:bsp_gpio.c    **** }
  41:bsp_gpio.c    **** 
  42:bsp_gpio.c    **** /*
  43:bsp_gpio.c    **** ***************************************************************************************************
  44:bsp_gpio.c    **** *                                       gpio_high()
  45:bsp_gpio.c    **** *
  46:bsp_gpio.c    **** * Description : This function set based on a chosen port (PORT1, PORT2) the digital level
  47:bsp_gpio.c    **** *               of a chosen pin (P1_6, P2_0, P2_1) on digital high (~ 5V).
  48:bsp_gpio.c    **** *
  49:bsp_gpio.c    **** * Argument(s) : port ... indicates which port should be addressed (PORT1, PORT2)
  50:bsp_gpio.c    **** *               pin  ... indicates which pin of the chosen port is addressed (P1_6, P2_0, P2_1)
  51:bsp_gpio.c    **** *
ARM GAS  C:\Users\filip\AppData\Local\Temp\ccltlJHz.s 			page 3


  52:bsp_gpio.c    **** * Return(s)   : 0 ... if no error occurred
  53:bsp_gpio.c    **** *               >1... if an error occurred
  54:bsp_gpio.c    **** *
  55:bsp_gpio.c    **** * Caller(s)   : Application.
  56:bsp_gpio.c    **** *
  57:bsp_gpio.c    **** * Note(s)     : Not re-entrant.
  58:bsp_gpio.c    **** ***************************************************************************************************
  59:bsp_gpio.c    **** */
  60:bsp_gpio.c    **** 
  61:bsp_gpio.c    **** CPU_INT08U gpio_high(CPU_INT08U port, CPU_INT08U pin)
  62:bsp_gpio.c    **** {
  64              		.loc 1 62 0
  65              		.cfi_startproc
  66              		@ args = 0, pretend = 0, frame = 0
  67              		@ frame_needed = 0, uses_anonymous_args = 0
  68              	.LVL4:
  69 0000 08B5     		push	{r3, lr}
  70              		.cfi_def_cfa_offset 8
  71              		.cfi_offset 3, -8
  72              		.cfi_offset 14, -4
  73              	.LVL5:
  63:bsp_gpio.c    ****   CPU_INT08U err = 0;
  64:bsp_gpio.c    ****   
  65:bsp_gpio.c    ****   if(port == PORT1){
  74              		.loc 1 65 0
  75 0002 0128     		cmp	r0, #1
  76 0004 05D1     		bne	.L4
  66:bsp_gpio.c    ****     if(pin == P1_6){
  77              		.loc 1 66 0
  78 0006 4029     		cmp	r1, #64
  79 0008 13D1     		bne	.L7
  67:bsp_gpio.c    ****       Pin_1_Write(HIGH);
  80              		.loc 1 67 0
  81 000a FFF7FEFF 		bl	Pin_1_Write
  82              	.LVL6:
  63:bsp_gpio.c    ****   CPU_INT08U err = 0;
  83              		.loc 1 63 0
  84 000e 0020     		movs	r0, #0
  85 0010 08BD     		pop	{r3, pc}
  86              	.LVL7:
  87              	.L4:
  68:bsp_gpio.c    ****     }
  69:bsp_gpio.c    ****     else{
  70:bsp_gpio.c    ****       err++;
  71:bsp_gpio.c    ****     }
  72:bsp_gpio.c    ****   }
  73:bsp_gpio.c    ****   else if(port == PORT2){
  88              		.loc 1 73 0
  89 0012 0228     		cmp	r0, #2
  90 0014 0FD1     		bne	.L8
  74:bsp_gpio.c    ****     if(pin == P2_0){
  91              		.loc 1 74 0
  92 0016 0129     		cmp	r1, #1
  93 0018 04D1     		bne	.L6
  75:bsp_gpio.c    ****       Pin_2_Write(P2_0); 
  94              		.loc 1 75 0
  95 001a 0120     		movs	r0, #1
ARM GAS  C:\Users\filip\AppData\Local\Temp\ccltlJHz.s 			page 4


  96              	.LVL8:
  97 001c FFF7FEFF 		bl	Pin_2_Write
  98              	.LVL9:
  63:bsp_gpio.c    ****   
  99              		.loc 1 63 0
 100 0020 0020     		movs	r0, #0
 101 0022 08BD     		pop	{r3, pc}
 102              	.LVL10:
 103              	.L6:
  76:bsp_gpio.c    ****     }
  77:bsp_gpio.c    ****     else if(pin == P2_1){
 104              		.loc 1 77 0
 105 0024 0229     		cmp	r1, #2
 106 0026 08D1     		bne	.L9
  78:bsp_gpio.c    ****       Pin_2_Write(P2_1);
 107              		.loc 1 78 0
 108 0028 0220     		movs	r0, #2
 109              	.LVL11:
 110 002a FFF7FEFF 		bl	Pin_2_Write
 111              	.LVL12:
  63:bsp_gpio.c    ****   
 112              		.loc 1 63 0
 113 002e 0020     		movs	r0, #0
 114 0030 08BD     		pop	{r3, pc}
 115              	.LVL13:
 116              	.L7:
  70:bsp_gpio.c    ****     }
 117              		.loc 1 70 0
 118 0032 0120     		movs	r0, #1
 119              	.LVL14:
 120 0034 08BD     		pop	{r3, pc}
 121              	.LVL15:
 122              	.L8:
  79:bsp_gpio.c    ****     }
  80:bsp_gpio.c    ****     else{
  81:bsp_gpio.c    ****       err++;
  82:bsp_gpio.c    ****     }
  83:bsp_gpio.c    ****   }
  84:bsp_gpio.c    ****   else{
  85:bsp_gpio.c    ****     err++;
 123              		.loc 1 85 0
 124 0036 0120     		movs	r0, #1
 125              	.LVL16:
 126 0038 08BD     		pop	{r3, pc}
 127              	.LVL17:
 128              	.L9:
  81:bsp_gpio.c    ****     }
 129              		.loc 1 81 0
 130 003a 0120     		movs	r0, #1
 131              	.LVL18:
  86:bsp_gpio.c    ****   }
  87:bsp_gpio.c    ****   return err;    
  88:bsp_gpio.c    **** }
 132              		.loc 1 88 0
 133 003c 08BD     		pop	{r3, pc}
 134              		.cfi_endproc
 135              	.LFE1:
ARM GAS  C:\Users\filip\AppData\Local\Temp\ccltlJHz.s 			page 5


 136              		.size	gpio_high, .-gpio_high
 137 003e 00BF     		.section	.text.gpio_low,"ax",%progbits
 138              		.align	2
 139              		.global	gpio_low
 140              		.thumb
 141              		.thumb_func
 142              		.type	gpio_low, %function
 143              	gpio_low:
 144              	.LFB2:
  89:bsp_gpio.c    **** 
  90:bsp_gpio.c    **** /*
  91:bsp_gpio.c    **** ***************************************************************************************************
  92:bsp_gpio.c    **** *                                       gpio_low()
  93:bsp_gpio.c    **** *
  94:bsp_gpio.c    **** * Description : This function resets based on a chosen port (PORT1, PORT2) the digital level
  95:bsp_gpio.c    **** *               of a chosen pin (P1_6, P2_0, P2_1) on digital low (0V).
  96:bsp_gpio.c    **** *
  97:bsp_gpio.c    **** * Argument(s) : port ... indicates which port should be addressed (PORT1, PORT2)
  98:bsp_gpio.c    **** *               pin  ... indicates which pin of the chosen port is addressed (P1_6, P2_0, P2_1)
  99:bsp_gpio.c    **** *
 100:bsp_gpio.c    **** * Return(s)   : 0 ... if no error occurred
 101:bsp_gpio.c    **** *               >1... if an error occurred
 102:bsp_gpio.c    **** *
 103:bsp_gpio.c    **** * Caller(s)   : Application.
 104:bsp_gpio.c    **** *
 105:bsp_gpio.c    **** * Note(s)     : Not re-entrant.
 106:bsp_gpio.c    **** ***************************************************************************************************
 107:bsp_gpio.c    **** */
 108:bsp_gpio.c    **** 
 109:bsp_gpio.c    **** CPU_INT08U gpio_low(CPU_INT08U port, CPU_INT08U pin)
 110:bsp_gpio.c    **** {
 145              		.loc 1 110 0
 146              		.cfi_startproc
 147              		@ args = 0, pretend = 0, frame = 0
 148              		@ frame_needed = 0, uses_anonymous_args = 0
 149              	.LVL19:
 150 0000 08B5     		push	{r3, lr}
 151              		.cfi_def_cfa_offset 8
 152              		.cfi_offset 3, -8
 153              		.cfi_offset 14, -4
 154              	.LVL20:
 111:bsp_gpio.c    ****   CPU_INT08U err = 0;
 112:bsp_gpio.c    ****   
 113:bsp_gpio.c    ****   if(port == PORT1){
 155              		.loc 1 113 0
 156 0002 0128     		cmp	r0, #1
 157 0004 06D1     		bne	.L12
 114:bsp_gpio.c    ****     if(pin == P1_6){
 158              		.loc 1 114 0
 159 0006 4029     		cmp	r1, #64
 160 0008 14D1     		bne	.L15
 115:bsp_gpio.c    ****       Pin_1_Write(LOW);
 161              		.loc 1 115 0
 162 000a 0020     		movs	r0, #0
 163              	.LVL21:
 164 000c FFF7FEFF 		bl	Pin_1_Write
 165              	.LVL22:
ARM GAS  C:\Users\filip\AppData\Local\Temp\ccltlJHz.s 			page 6


 111:bsp_gpio.c    ****   CPU_INT08U err = 0;
 166              		.loc 1 111 0
 167 0010 0020     		movs	r0, #0
 168 0012 08BD     		pop	{r3, pc}
 169              	.LVL23:
 170              	.L12:
 116:bsp_gpio.c    ****     }
 117:bsp_gpio.c    ****     else{
 118:bsp_gpio.c    ****       err++;
 119:bsp_gpio.c    ****     }
 120:bsp_gpio.c    ****   }
 121:bsp_gpio.c    ****   else if(port == PORT2){
 171              		.loc 1 121 0
 172 0014 0228     		cmp	r0, #2
 173 0016 0FD1     		bne	.L16
 122:bsp_gpio.c    ****     if(pin == P2_0){
 174              		.loc 1 122 0
 175 0018 0129     		cmp	r1, #1
 176 001a 04D1     		bne	.L14
 123:bsp_gpio.c    ****       Pin_2_Write(!(P2_0)); 
 177              		.loc 1 123 0
 178 001c 0020     		movs	r0, #0
 179              	.LVL24:
 180 001e FFF7FEFF 		bl	Pin_2_Write
 181              	.LVL25:
 111:bsp_gpio.c    ****   
 182              		.loc 1 111 0
 183 0022 0020     		movs	r0, #0
 184 0024 08BD     		pop	{r3, pc}
 185              	.LVL26:
 186              	.L14:
 124:bsp_gpio.c    ****     }
 125:bsp_gpio.c    ****     else if(pin == P2_1){
 187              		.loc 1 125 0
 188 0026 0229     		cmp	r1, #2
 189 0028 08D1     		bne	.L17
 126:bsp_gpio.c    ****       Pin_2_Write(!(P2_1));
 190              		.loc 1 126 0
 191 002a 0020     		movs	r0, #0
 192              	.LVL27:
 193 002c FFF7FEFF 		bl	Pin_2_Write
 194              	.LVL28:
 111:bsp_gpio.c    ****   
 195              		.loc 1 111 0
 196 0030 0020     		movs	r0, #0
 197 0032 08BD     		pop	{r3, pc}
 198              	.LVL29:
 199              	.L15:
 118:bsp_gpio.c    ****     }
 200              		.loc 1 118 0
 201 0034 0120     		movs	r0, #1
 202              	.LVL30:
 203 0036 08BD     		pop	{r3, pc}
 204              	.LVL31:
 205              	.L16:
 127:bsp_gpio.c    ****     }
 128:bsp_gpio.c    ****     else{
ARM GAS  C:\Users\filip\AppData\Local\Temp\ccltlJHz.s 			page 7


 129:bsp_gpio.c    ****       err++;
 130:bsp_gpio.c    ****     }
 131:bsp_gpio.c    ****   }
 132:bsp_gpio.c    ****   else{
 133:bsp_gpio.c    ****     err++;
 206              		.loc 1 133 0
 207 0038 0120     		movs	r0, #1
 208              	.LVL32:
 209 003a 08BD     		pop	{r3, pc}
 210              	.LVL33:
 211              	.L17:
 129:bsp_gpio.c    ****     }
 212              		.loc 1 129 0
 213 003c 0120     		movs	r0, #1
 214              	.LVL34:
 134:bsp_gpio.c    ****   }
 135:bsp_gpio.c    ****   return err;   
 136:bsp_gpio.c    **** }
 215              		.loc 1 136 0
 216 003e 08BD     		pop	{r3, pc}
 217              		.cfi_endproc
 218              	.LFE2:
 219              		.size	gpio_low, .-gpio_low
 220              		.section	.text.gpio_read,"ax",%progbits
 221              		.align	2
 222              		.global	gpio_read
 223              		.thumb
 224              		.thumb_func
 225              		.type	gpio_read, %function
 226              	gpio_read:
 227              	.LFB3:
 137:bsp_gpio.c    **** 
 138:bsp_gpio.c    **** /*
 139:bsp_gpio.c    **** ***************************************************************************************************
 140:bsp_gpio.c    **** *                                       gpio_read()
 141:bsp_gpio.c    **** *
 142:bsp_gpio.c    **** * Description : This function reads the digital level of a chosen port (PORT2) and pin (P2_2).
 143:bsp_gpio.c    **** *
 144:bsp_gpio.c    **** * Argument(s) : port ... indicates which port should be addressed (PORT2)
 145:bsp_gpio.c    **** *               pin  ... indicates which pin of the chosen port is addressed (P2_2)
 146:bsp_gpio.c    **** *
 147:bsp_gpio.c    **** * Return(s)   : 0 ... if no error occurred
 148:bsp_gpio.c    **** *               -1... if an error occurred
 149:bsp_gpio.c    **** *
 150:bsp_gpio.c    **** * Caller(s)   : Application.
 151:bsp_gpio.c    **** *
 152:bsp_gpio.c    **** * Note(s)     : Not re-entrant.
 153:bsp_gpio.c    **** ***************************************************************************************************
 154:bsp_gpio.c    **** */
 155:bsp_gpio.c    **** 
 156:bsp_gpio.c    **** CPU_INT08S gpio_read(CPU_INT08U port, CPU_INT08U pin)
 157:bsp_gpio.c    **** {
 228              		.loc 1 157 0
 229              		.cfi_startproc
 230              		@ args = 0, pretend = 0, frame = 0
 231              		@ frame_needed = 0, uses_anonymous_args = 0
 232              	.LVL35:
ARM GAS  C:\Users\filip\AppData\Local\Temp\ccltlJHz.s 			page 8


 158:bsp_gpio.c    ****   CPU_INT08S err = 0;
 159:bsp_gpio.c    ****   
 160:bsp_gpio.c    ****   if(port == PORT2){
 233              		.loc 1 160 0
 234 0000 0228     		cmp	r0, #2
 235 0002 06D1     		bne	.L21
 161:bsp_gpio.c    ****     if(pin == P2_2){
 236              		.loc 1 161 0
 237 0004 0429     		cmp	r1, #4
 238 0006 07D1     		bne	.L22
 157:bsp_gpio.c    ****   CPU_INT08S err = 0;
 239              		.loc 1 157 0
 240 0008 08B5     		push	{r3, lr}
 241              		.cfi_def_cfa_offset 8
 242              		.cfi_offset 3, -8
 243              		.cfi_offset 14, -4
 162:bsp_gpio.c    ****       err = push_button_Read();    
 244              		.loc 1 162 0
 245 000a FFF7FEFF 		bl	push_button_Read
 246              	.LVL36:
 247 000e 40B2     		sxtb	r0, r0
 248              	.LVL37:
 249 0010 08BD     		pop	{r3, pc}
 250              	.LVL38:
 251              	.L21:
 252              		.cfi_def_cfa_offset 0
 253              		.cfi_restore 3
 254              		.cfi_restore 14
 163:bsp_gpio.c    ****     }
 164:bsp_gpio.c    ****     else{
 165:bsp_gpio.c    ****       err = -1;
 166:bsp_gpio.c    ****     }
 167:bsp_gpio.c    ****   }
 168:bsp_gpio.c    ****   else{
 169:bsp_gpio.c    ****     err = -1;
 255              		.loc 1 169 0
 256 0012 4FF0FF30 		mov	r0, #-1
 257              	.LVL39:
 258 0016 7047     		bx	lr
 259              	.LVL40:
 260              	.L22:
 165:bsp_gpio.c    ****     }
 261              		.loc 1 165 0
 262 0018 4FF0FF30 		mov	r0, #-1
 263              	.LVL41:
 264 001c 7047     		bx	lr
 265              		.cfi_endproc
 266              	.LFE3:
 267              		.size	gpio_read, .-gpio_read
 268 001e 00BF     		.text
 269              	.Letext0:
 270              		.file 2 ".\\uC-CPU\\ARM-Cortex-M3\\GNU/cpu.h"
 271              		.file 3 "Generated_Source\\PSoC5/cytypes.h"
 272              		.file 4 "Generated_Source\\PSoC5/Pin_1.h"
 273              		.file 5 "Generated_Source\\PSoC5/Pin_2.h"
 274              		.file 6 "Generated_Source\\PSoC5/push_button.h"