ARM GAS  C:\Users\filip\AppData\Local\Temp\cczs8R9l.s 			page 1


   1              		.syntax unified
   2              		.cpu cortex-m3
   3              		.fpu softvfp
   4              		.eabi_attribute 20, 1
   5              		.eabi_attribute 21, 1
   6              		.eabi_attribute 23, 3
   7              		.eabi_attribute 24, 1
   8              		.eabi_attribute 25, 1
   9              		.eabi_attribute 26, 1
  10              		.eabi_attribute 30, 1
  11              		.eabi_attribute 34, 1
  12              		.eabi_attribute 18, 4
  13              		.thumb
  14              		.syntax unified
  15              		.file	"bsp_uart.c"
  16              		.text
  17              	.Ltext0:
  18              		.cfi_sections	.debug_frame
  19              		.section	.text.init_uart,"ax",%progbits
  20              		.align	2
  21              		.global	init_uart
  22              		.thumb
  23              		.thumb_func
  24              		.type	init_uart, %function
  25              	init_uart:
  26              	.LFB1:
  27              		.file 1 "bsp_uart.c"
   1:bsp_uart.c    **** /* ========================================
   2:bsp_uart.c    ****  *
   3:bsp_uart.c    ****  * Copyright YOUR COMPANY, THE YEAR
   4:bsp_uart.c    ****  * All Rights Reserved
   5:bsp_uart.c    ****  * UNPUBLISHED, LICENSED SOFTWARE.
   6:bsp_uart.c    ****  *
   7:bsp_uart.c    ****  * CONFIDENTIAL AND PROPRIETARY INFORMATION
   8:bsp_uart.c    ****  * WHICH IS THE PROPERTY OF your company.
   9:bsp_uart.c    ****  *
  10:bsp_uart.c    ****  * ========================================
  11:bsp_uart.c    **** */
  12:bsp_uart.c    **** 
  13:bsp_uart.c    **** #include <bsp_uart.h>
  14:bsp_uart.c    **** 
  15:bsp_uart.c    **** /*
  16:bsp_uart.c    **** ***************************************************************************************************
  17:bsp_uart.c    **** *                                       init_uart()
  18:bsp_uart.c    **** *
  19:bsp_uart.c    **** * Description : This function initializes the UART_1 communication module. Configuration: 115200,8N
  20:bsp_uart.c    **** *
  21:bsp_uart.c    **** * Argument(s) : none.
  22:bsp_uart.c    **** *
  23:bsp_uart.c    **** * Return(s)   : none.
  24:bsp_uart.c    **** *
  25:bsp_uart.c    **** * Caller(s)   : Application.
  26:bsp_uart.c    **** *
  27:bsp_uart.c    **** * Note(s)     : Not re-entrant.
  28:bsp_uart.c    **** ***************************************************************************************************
  29:bsp_uart.c    **** */
  30:bsp_uart.c    **** 
ARM GAS  C:\Users\filip\AppData\Local\Temp\cczs8R9l.s 			page 2


  31:bsp_uart.c    **** CPU_VOID init_uart(CPU_VOID)
  32:bsp_uart.c    **** {
  28              		.loc 1 32 0
  29              		.cfi_startproc
  30              		@ args = 0, pretend = 0, frame = 0
  31              		@ frame_needed = 0, uses_anonymous_args = 0
  32 0000 08B5     		push	{r3, lr}
  33              		.cfi_def_cfa_offset 8
  34              		.cfi_offset 3, -8
  35              		.cfi_offset 14, -4
  33:bsp_uart.c    ****     UART_1_Start();
  36              		.loc 1 33 0
  37 0002 FFF7FEFF 		bl	UART_1_Start
  38              	.LVL0:
  39 0006 08BD     		pop	{r3, pc}
  40              		.cfi_endproc
  41              	.LFE1:
  42              		.size	init_uart, .-init_uart
  43              		.section	.text.uart_get_byte,"ax",%progbits
  44              		.align	2
  45              		.global	uart_get_byte
  46              		.thumb
  47              		.thumb_func
  48              		.type	uart_get_byte, %function
  49              	uart_get_byte:
  50              	.LFB2:
  34:bsp_uart.c    **** }
  35:bsp_uart.c    **** 
  36:bsp_uart.c    **** /*
  37:bsp_uart.c    **** ***************************************************************************************************
  38:bsp_uart.c    **** *                                       uart_get_byte()
  39:bsp_uart.c    **** *
  40:bsp_uart.c    **** * Description : Returns the last received byte of data. UART_1_GetChar() is
  41:bsp_uart.c    **** *               designed for ASCII characters and returns a uint8 where 1 to 255 are values
  42:bsp_uart.c    **** *               for valid characters and 0 indicates an error occurred or no data is present 
  43:bsp_uart.c    **** *
  44:bsp_uart.c    **** * Argument(s) : none.
  45:bsp_uart.c    **** *
  46:bsp_uart.c    **** * Return(s)   : Character read from UART RX buffer. ASCII characters from 1 to 255 are valid.
  47:bsp_uart.c    **** *               A returned zero signifies an error condition or no data available.
  48:bsp_uart.c    **** *
  49:bsp_uart.c    **** * Caller(s)   : Application.
  50:bsp_uart.c    **** *
  51:bsp_uart.c    **** * Note(s)     : Not re-entrant, non-blocking.
  52:bsp_uart.c    **** ***************************************************************************************************
  53:bsp_uart.c    **** */
  54:bsp_uart.c    **** 
  55:bsp_uart.c    **** CPU_INT08U uart_get_byte(CPU_VOID)
  56:bsp_uart.c    **** {
  51              		.loc 1 56 0
  52              		.cfi_startproc
  53              		@ args = 0, pretend = 0, frame = 0
  54              		@ frame_needed = 0, uses_anonymous_args = 0
  55 0000 08B5     		push	{r3, lr}
  56              		.cfi_def_cfa_offset 8
  57              		.cfi_offset 3, -8
  58              		.cfi_offset 14, -4
ARM GAS  C:\Users\filip\AppData\Local\Temp\cczs8R9l.s 			page 3


  57:bsp_uart.c    ****     return UART_1_GetChar();
  59              		.loc 1 57 0
  60 0002 FFF7FEFF 		bl	UART_1_GetChar
  61              	.LVL1:
  58:bsp_uart.c    **** }
  62              		.loc 1 58 0
  63 0006 08BD     		pop	{r3, pc}
  64              		.cfi_endproc
  65              	.LFE2:
  66              		.size	uart_get_byte, .-uart_get_byte
  67              		.section	.text.uart_send_byte,"ax",%progbits
  68              		.align	2
  69              		.global	uart_send_byte
  70              		.thumb
  71              		.thumb_func
  72              		.type	uart_send_byte, %function
  73              	uart_send_byte:
  74              	.LFB3:
  59:bsp_uart.c    **** 
  60:bsp_uart.c    **** /*
  61:bsp_uart.c    **** ***************************************************************************************************
  62:bsp_uart.c    **** *                                       uart_send_byte()
  63:bsp_uart.c    **** *
  64:bsp_uart.c    **** * Description : Puts a byte of data into the transmit buffer to be sent when the bus is
  65:bsp_uart.c    **** *               available. This is a blocking API that waits until the TX buffer has room to
  66:bsp_uart.c    **** *               hold the data. 
  67:bsp_uart.c    **** *
  68:bsp_uart.c    **** * Argument(s) : byte ... containing the data to transmit
  69:bsp_uart.c    **** *
  70:bsp_uart.c    **** * Return(s)   : None.
  71:bsp_uart.c    **** *
  72:bsp_uart.c    **** * Caller(s)   : Application.
  73:bsp_uart.c    **** *
  74:bsp_uart.c    **** * Note(s)     : Not re-entrant.
  75:bsp_uart.c    **** ***************************************************************************************************
  76:bsp_uart.c    **** */
  77:bsp_uart.c    **** 
  78:bsp_uart.c    **** CPU_VOID uart_send_byte(CPU_INT08U byte)
  79:bsp_uart.c    **** {
  75              		.loc 1 79 0
  76              		.cfi_startproc
  77              		@ args = 0, pretend = 0, frame = 0
  78              		@ frame_needed = 0, uses_anonymous_args = 0
  79              	.LVL2:
  80 0000 08B5     		push	{r3, lr}
  81              		.cfi_def_cfa_offset 8
  82              		.cfi_offset 3, -8
  83              		.cfi_offset 14, -4
  80:bsp_uart.c    ****     UART_1_PutChar(byte);
  84              		.loc 1 80 0
  85 0002 FFF7FEFF 		bl	UART_1_PutChar
  86              	.LVL3:
  87 0006 08BD     		pop	{r3, pc}
  88              		.cfi_endproc
  89              	.LFE3:
  90              		.size	uart_send_byte, .-uart_send_byte
  91              		.section	.text.uart_send_string,"ax",%progbits
ARM GAS  C:\Users\filip\AppData\Local\Temp\cczs8R9l.s 			page 4


  92              		.align	2
  93              		.global	uart_send_string
  94              		.thumb
  95              		.thumb_func
  96              		.type	uart_send_string, %function
  97              	uart_send_string:
  98              	.LFB4:
  81:bsp_uart.c    **** }
  82:bsp_uart.c    **** 
  83:bsp_uart.c    **** /*
  84:bsp_uart.c    **** ***************************************************************************************************
  85:bsp_uart.c    **** *                                      uart_send_string()
  86:bsp_uart.c    **** *
  87:bsp_uart.c    **** * Description : Puts a string into the transmit buffer to be sent when the bus is
  88:bsp_uart.c    **** *               available. This is a blocking API that waits until the TX buffer has room to
  89:bsp_uart.c    **** *               hold the data. 
  90:bsp_uart.c    **** *
  91:bsp_uart.c    **** * Argument(s) : array ... containing the data to transmit
  92:bsp_uart.c    **** *
  93:bsp_uart.c    **** * Return(s)   : None.
  94:bsp_uart.c    **** *
  95:bsp_uart.c    **** * Caller(s)   : Application.
  96:bsp_uart.c    **** *
  97:bsp_uart.c    **** * Note(s)     : Not re-entrant.
  98:bsp_uart.c    **** ***************************************************************************************************
  99:bsp_uart.c    **** */
 100:bsp_uart.c    **** 
 101:bsp_uart.c    **** CPU_VOID uart_send_string(CPU_CHAR array[])
 102:bsp_uart.c    **** {
  99              		.loc 1 102 0
 100              		.cfi_startproc
 101              		@ args = 0, pretend = 0, frame = 0
 102              		@ frame_needed = 0, uses_anonymous_args = 0
 103              	.LVL4:
 104 0000 08B5     		push	{r3, lr}
 105              		.cfi_def_cfa_offset 8
 106              		.cfi_offset 3, -8
 107              		.cfi_offset 14, -4
 103:bsp_uart.c    ****     UART_1_PutString(array);
 108              		.loc 1 103 0
 109 0002 FFF7FEFF 		bl	UART_1_PutString
 110              	.LVL5:
 111 0006 08BD     		pop	{r3, pc}
 112              		.cfi_endproc
 113              	.LFE4:
 114              		.size	uart_send_string, .-uart_send_string
 115              		.section	.text.uart_send_array,"ax",%progbits
 116              		.align	2
 117              		.global	uart_send_array
 118              		.thumb
 119              		.thumb_func
 120              		.type	uart_send_array, %function
 121              	uart_send_array:
 122              	.LFB5:
 104:bsp_uart.c    **** }
 105:bsp_uart.c    **** 
 106:bsp_uart.c    **** /*
ARM GAS  C:\Users\filip\AppData\Local\Temp\cczs8R9l.s 			page 5


 107:bsp_uart.c    **** ***************************************************************************************************
 108:bsp_uart.c    **** *                                   uart_send_array()
 109:bsp_uart.c    **** *
 110:bsp_uart.c    **** * Description : Puts an array of size N into the transmit buffer to be sent when the bus is
 111:bsp_uart.c    **** *               available. This is a blocking API that waits until the TX buffer has room to
 112:bsp_uart.c    **** *               hold the data. 
 113:bsp_uart.c    **** *
 114:bsp_uart.c    **** * Argument(s) : array     ... containing the data to transmit
 115:bsp_uart.c    **** *               byteCount ... number of bytes to be transmitted
 116:bsp_uart.c    **** *
 117:bsp_uart.c    **** * Return(s)   : None.
 118:bsp_uart.c    **** *
 119:bsp_uart.c    **** * Caller(s)   : Application.
 120:bsp_uart.c    **** *
 121:bsp_uart.c    **** * Note(s)     : Not re-entrant.
 122:bsp_uart.c    **** ***************************************************************************************************
 123:bsp_uart.c    **** */
 124:bsp_uart.c    **** 
 125:bsp_uart.c    **** CPU_VOID uart_send_array(CPU_INT08U array[], CPU_INT08U byteCount) 
 126:bsp_uart.c    **** {
 123              		.loc 1 126 0
 124              		.cfi_startproc
 125              		@ args = 0, pretend = 0, frame = 0
 126              		@ frame_needed = 0, uses_anonymous_args = 0
 127              	.LVL6:
 128 0000 08B5     		push	{r3, lr}
 129              		.cfi_def_cfa_offset 8
 130              		.cfi_offset 3, -8
 131              		.cfi_offset 14, -4
 127:bsp_uart.c    ****     UART_1_PutArray(array, byteCount);
 132              		.loc 1 127 0
 133 0002 FFF7FEFF 		bl	UART_1_PutArray
 134              	.LVL7:
 135 0006 08BD     		pop	{r3, pc}
 136              		.cfi_endproc
 137              	.LFE5:
 138              		.size	uart_send_array, .-uart_send_array
 139              		.global	__aeabi_dcmplt
 140              		.global	__aeabi_dmul
 141              		.global	__aeabi_d2iz
 142              		.section	.text.uart_send_double,"ax",%progbits
 143              		.align	2
 144              		.global	uart_send_double
 145              		.thumb
 146              		.thumb_func
 147              		.type	uart_send_double, %function
 148              	uart_send_double:
 149              	.LFB6:
 128:bsp_uart.c    **** }
 129:bsp_uart.c    **** 
 130:bsp_uart.c    **** /*
 131:bsp_uart.c    **** ***************************************************************************************************
 132:bsp_uart.c    **** *                                  uart_send_double()
 133:bsp_uart.c    **** *
 134:bsp_uart.c    **** * Description : Puts a string with a double value into the transmit 
 135:bsp_uart.c    **** *               buffer to be sent when the bus is available. This is a blocking 
 136:bsp_uart.c    **** *               API that waits until the TX buffer has room to hold the data. 
ARM GAS  C:\Users\filip\AppData\Local\Temp\cczs8R9l.s 			page 6


 137:bsp_uart.c    **** *
 138:bsp_uart.c    **** * Argument(s) : array         ... containing the data to transmit
 139:bsp_uart.c    **** *               double_value  ... double value to be transmitted as (X.XX)
 140:bsp_uart.c    **** *
 141:bsp_uart.c    **** * Return(s)   : None.
 142:bsp_uart.c    **** *
 143:bsp_uart.c    **** * Caller(s)   : Application.
 144:bsp_uart.c    **** *
 145:bsp_uart.c    **** * Note(s)     : Not re-entrant.
 146:bsp_uart.c    **** ***************************************************************************************************
 147:bsp_uart.c    **** */
 148:bsp_uart.c    **** 
 149:bsp_uart.c    **** CPU_VOID uart_send_double(CPU_CHAR array[], CPU_FP64 double_value)
 150:bsp_uart.c    **** {
 150              		.loc 1 150 0
 151              		.cfi_startproc
 152              		@ args = 0, pretend = 0, frame = 256
 153              		@ frame_needed = 0, uses_anonymous_args = 0
 154              	.LVL8:
 155 0000 2DE9F041 		push	{r4, r5, r6, r7, r8, lr}
 156              		.cfi_def_cfa_offset 24
 157              		.cfi_offset 4, -24
 158              		.cfi_offset 5, -20
 159              		.cfi_offset 6, -16
 160              		.cfi_offset 7, -12
 161              		.cfi_offset 8, -8
 162              		.cfi_offset 14, -4
 163 0004 C2B0     		sub	sp, sp, #264
 164              		.cfi_def_cfa_offset 288
 165 0006 0446     		mov	r4, r0
 166 0008 1746     		mov	r7, r2
 167 000a 1D46     		mov	r5, r3
 151:bsp_uart.c    ****     CPU_INT08U   tx_msg[UART_1_TX_BUFFER_SIZE] = {0};
 168              		.loc 1 151 0
 169 000c FF22     		movs	r2, #255
 170              	.LVL9:
 171 000e 0021     		movs	r1, #0
 172 0010 02A8     		add	r0, sp, #8
 173              	.LVL10:
 174 0012 FFF7FEFF 		bl	memset
 175              	.LVL11:
 152:bsp_uart.c    ****     int tx_msg_len = 0;
 153:bsp_uart.c    ****     
 154:bsp_uart.c    ****     if (double_value < 0.0) {
 176              		.loc 1 154 0
 177 0016 0022     		movs	r2, #0
 178 0018 0023     		movs	r3, #0
 179 001a 3846     		mov	r0, r7
 180 001c 2946     		mov	r1, r5
 181 001e FFF7FEFF 		bl	__aeabi_dcmplt
 182              	.LVL12:
 183 0022 58B3     		cbz	r0, .L16
 155:bsp_uart.c    ****       double_value *= -1.0;
 184              		.loc 1 155 0
 185 0024 05F10045 		add	r5, r5, #-2147483648
 186              	.LVL13:
 156:bsp_uart.c    ****       tx_msg_len = strlen(strncpy((CPU_CHAR *)tx_msg, array, UART_1_TX_BUFFER_SIZE-7));
ARM GAS  C:\Users\filip\AppData\Local\Temp\cczs8R9l.s 			page 7


 187              		.loc 1 156 0
 188 0028 F822     		movs	r2, #248
 189 002a 2146     		mov	r1, r4
 190 002c 02A8     		add	r0, sp, #8
 191 002e FFF7FEFF 		bl	strncpy
 192              	.LVL14:
 193 0032 FFF7FEFF 		bl	strlen
 194              	.LVL15:
 195 0036 0446     		mov	r4, r0
 196              	.LVL16:
 157:bsp_uart.c    ****       tx_msg_len += snprintf((CPU_CHAR *)(tx_msg+tx_msg_len), 7, "-%d.%02d\n", 
 197              		.loc 1 157 0
 198 0038 02AB     		add	r3, sp, #8
 199 003a 1E18     		adds	r6, r3, r0
 158:bsp_uart.c    ****                            (int)double_value, (int)(100*double_value)%100);
 200              		.loc 1 158 0
 201 003c 0022     		movs	r2, #0
 202 003e 2A4B     		ldr	r3, .L18
 203 0040 3846     		mov	r0, r7
 204              	.LVL17:
 205 0042 2946     		mov	r1, r5
 206 0044 FFF7FEFF 		bl	__aeabi_dmul
 207              	.LVL18:
 208 0048 FFF7FEFF 		bl	__aeabi_d2iz
 209              	.LVL19:
 210 004c 8046     		mov	r8, r0
 157:bsp_uart.c    ****       tx_msg_len += snprintf((CPU_CHAR *)(tx_msg+tx_msg_len), 7, "-%d.%02d\n", 
 211              		.loc 1 157 0
 212 004e 3846     		mov	r0, r7
 213 0050 2946     		mov	r1, r5
 214 0052 FFF7FEFF 		bl	__aeabi_d2iz
 215              	.LVL20:
 216 0056 254B     		ldr	r3, .L18+4
 217 0058 83FB0832 		smull	r3, r2, r3, r8
 218 005c 4FEAE873 		asr	r3, r8, #31
 219 0060 C3EB6213 		rsb	r3, r3, r2, asr #5
 220 0064 6422     		movs	r2, #100
 221 0066 02FB1383 		mls	r3, r2, r3, r8
 222 006a 0093     		str	r3, [sp]
 223 006c 0346     		mov	r3, r0
 224 006e 204A     		ldr	r2, .L18+8
 225 0070 0721     		movs	r1, #7
 226 0072 3046     		mov	r0, r6
 227 0074 FFF7FEFF 		bl	snprintf
 228              	.LVL21:
 229 0078 2118     		adds	r1, r4, r0
 230              	.LVL22:
 231 007a 28E0     		b	.L14
 232              	.LVL23:
 233              	.L16:
 159:bsp_uart.c    ****     } 
 160:bsp_uart.c    ****     else {
 161:bsp_uart.c    ****       tx_msg_len = strlen(strncpy((CPU_CHAR *)tx_msg, array, UART_1_TX_BUFFER_SIZE-6));
 234              		.loc 1 161 0
 235 007c F922     		movs	r2, #249
 236 007e 2146     		mov	r1, r4
 237 0080 02A8     		add	r0, sp, #8
ARM GAS  C:\Users\filip\AppData\Local\Temp\cczs8R9l.s 			page 8


 238 0082 FFF7FEFF 		bl	strncpy
 239              	.LVL24:
 240 0086 FFF7FEFF 		bl	strlen
 241              	.LVL25:
 242 008a 0446     		mov	r4, r0
 243              	.LVL26:
 162:bsp_uart.c    ****       tx_msg_len += snprintf((CPU_CHAR *)(tx_msg+tx_msg_len), 6, "%d.%02d\n", 
 244              		.loc 1 162 0
 245 008c 02AB     		add	r3, sp, #8
 246 008e 1E18     		adds	r6, r3, r0
 163:bsp_uart.c    ****                            (int)double_value, (int)(100*double_value)%100);
 247              		.loc 1 163 0
 248 0090 0022     		movs	r2, #0
 249 0092 154B     		ldr	r3, .L18
 250 0094 3846     		mov	r0, r7
 251              	.LVL27:
 252 0096 2946     		mov	r1, r5
 253 0098 FFF7FEFF 		bl	__aeabi_dmul
 254              	.LVL28:
 255 009c FFF7FEFF 		bl	__aeabi_d2iz
 256              	.LVL29:
 257 00a0 8046     		mov	r8, r0
 162:bsp_uart.c    ****       tx_msg_len += snprintf((CPU_CHAR *)(tx_msg+tx_msg_len), 6, "%d.%02d\n", 
 258              		.loc 1 162 0
 259 00a2 3846     		mov	r0, r7
 260 00a4 2946     		mov	r1, r5
 261 00a6 FFF7FEFF 		bl	__aeabi_d2iz
 262              	.LVL30:
 263 00aa 104B     		ldr	r3, .L18+4
 264 00ac 83FB0823 		smull	r2, r3, r3, r8
 265 00b0 4FEAE872 		asr	r2, r8, #31
 266 00b4 C2EB6313 		rsb	r3, r2, r3, asr #5
 267 00b8 6422     		movs	r2, #100
 268 00ba 02FB1383 		mls	r3, r2, r3, r8
 269 00be 0093     		str	r3, [sp]
 270 00c0 0346     		mov	r3, r0
 271 00c2 0C4A     		ldr	r2, .L18+12
 272 00c4 0621     		movs	r1, #6
 273 00c6 3046     		mov	r0, r6
 274 00c8 FFF7FEFF 		bl	snprintf
 275              	.LVL31:
 276 00cc 2118     		adds	r1, r4, r0
 277              	.LVL32:
 278              	.L14:
 164:bsp_uart.c    ****     }
 165:bsp_uart.c    ****     uart_send_array(tx_msg, tx_msg_len);
 279              		.loc 1 165 0
 280 00ce C9B2     		uxtb	r1, r1
 281              	.LVL33:
 282 00d0 02A8     		add	r0, sp, #8
 283 00d2 FFF7FEFF 		bl	uart_send_array
 284              	.LVL34:
 166:bsp_uart.c    ****     memset(&tx_msg[0],0,sizeof(tx_msg));
 285              		.loc 1 166 0
 286 00d6 FF22     		movs	r2, #255
 287 00d8 0021     		movs	r1, #0
 288 00da 02A8     		add	r0, sp, #8
ARM GAS  C:\Users\filip\AppData\Local\Temp\cczs8R9l.s 			page 9


 289 00dc FFF7FEFF 		bl	memset
 290              	.LVL35:
 167:bsp_uart.c    **** }
 291              		.loc 1 167 0
 292 00e0 42B0     		add	sp, sp, #264
 293              		.cfi_def_cfa_offset 24
 294              		@ sp needed
 295 00e2 BDE8F081 		pop	{r4, r5, r6, r7, r8, pc}
 296              	.L19:
 297 00e6 00BF     		.align	2
 298              	.L18:
 299 00e8 00005940 		.word	1079574528
 300 00ec 1F85EB51 		.word	1374389535
 301 00f0 00000000 		.word	.LC0
 302 00f4 0C000000 		.word	.LC1
 303              		.cfi_endproc
 304              	.LFE6:
 305              		.size	uart_send_double, .-uart_send_double
 306              		.section	.rodata.str1.4,"aMS",%progbits,1
 307              		.align	2
 308              	.LC0:
 309 0000 2D25642E 		.ascii	"-%d.%02d\012\000"
 309      25303264 
 309      0A00
 310 000a 0000     		.space	2
 311              	.LC1:
 312 000c 25642E25 		.ascii	"%d.%02d\012\000"
 312      3032640A 
 312      00
 313              		.text
 314              	.Letext0:
 315              		.file 2 ".\\uC-CPU\\ARM-Cortex-M3\\GNU/cpu.h"
 316              		.file 3 "./bsp_uart.h"
 317              		.file 4 "Generated_Source\\PSoC5/UART_1.h"
 318              		.file 5 "c:\\program files (x86)\\cypress\\psoc creator\\4.2\\psoc creator\\import\\gnu\\arm\\5.4.
 319              		.file 6 "c:\\program files (x86)\\cypress\\psoc creator\\4.2\\psoc creator\\import\\gnu\\arm\\5.4.